MPASM 5.86             NEWPIC_8B_GENERAL.ASM   2-27-2023  17:45:21         PAGE  1


LOC  OBJECT CODE     LINE SOURCE TEXT
  VALUE

Warning[205]: Found directive in column 1. (LIST)
Warning[215]: Processor superseded by command line.  Verify processor symbol.
                      00001 LIST P=PIC18F4321 F=INHX32
                      00002 #include <p18f4321.inc>
                      00001         LIST
                      00002 
                      00003 ;==========================================================================
                      00004 ; Build date : Oct 24 2019
                      00005 ;  MPASM PIC18F4321 processor include
                      00006 ; 
                      00007 ;  (c) Copyright 1999-2019 Microchip Technology, All rights reserved
                      00008 ;==========================================================================
                      00009 
                      01455         LIST
                      00003     
Warning[205]: Found directive in column 1. (CONFIG)
                      00004 CONFIG OSC=INTIO2
Warning[205]: Found directive in column 1. (CONFIG)
                      00005 CONFIG PBADEN=DIG
Warning[205]: Found directive in column 1. (CONFIG)
                      00006 CONFIG WDT=OFF
                      00007 
                      00008 ;--------------------------------------
                      00009 ; DEFINIM VARIABLES
                      00010 ;--------------------------------------
                      00011 ; Constants per guardar el valor de velocitat en 7Segments
  00000000            00012 CONST_7SEG_HIGH  EQU  0x00
  00000001            00013 CONST_7SEG_MID   EQU  0x01
  00000002            00014 CONST_7SEG_LOW   EQU  0x02
  00000003            00015 CONST_7SEG_0     EQU  0x03
                      00016 ; Flag per saber si la velocitat és negativa (=1) o positiva (=0)
  00000004            00017 IS_NEGATIVE      EQU  0x04
                      00018 ; Flag per saber si estem a mode manual (=1) o creuer (=0)
  00000005            00019 MANUAL_MODE      EQU  0x05
                      00020 ; Codi vel: 1 --> High Negative
                      00021            ;2 --> Mid Negative
                      00022            ;3 --> Low Negative
                      00023            ;4 --> 0
                      00024            ;5 --> Low Positive
                      00025            ;6 --> Mid Positive
                      00026            ;7 --> High Positive 
  00000006            00027 VEL_ACTUAL       EQU  0x06
                      00028 ; Comptador per filtrar rebots
  00000007            00029 ContInstL        EQU  0x07
  00000008            00030 ContInstH        EQU  0x08 
                      00031 ; Comptador per comptar 1 minut (per inactivitat)
  00000009            00032 TicsMinH         EQU  0x09
  0000000A            00033 TicsMinL         EQU  0x0A
                      00034 ; Flag per saber si l'alarma està activa (=1) o no (=0)
  0000000B            00035 ALARM_EN         EQU  0x0B
                      00036 ; Comptador per comptar mig segon (pampallugues de l'alarma)
  0000000C            00037 TicsAlarmL       EQU  0x0C
  0000000D            00038 TicsAlarmH       EQU  0x0D
MPASM 5.86             NEWPIC_8B_GENERAL.ASM   2-27-2023  17:45:21         PAGE  2


LOC  OBJECT CODE     LINE SOURCE TEXT
  VALUE

                      00039 ; Flag per habilitar el comptatge de temps del polsador RecordMode 
                      00040 ; de 1 segon (=1) o deshabilitar-lo (=0)
  0000000E            00041 AUTOP_EN         EQU  0x0E
                      00042 ; Comptador per comptar 1 segon (pel polsador recording)
  0000000F            00043 TicsSegL         EQU  0x0F
  00000010            00044 TicsSegH         EQU  0x10
                      00045 ; Flag per saber si estem en mode recording (=1) o no ho estem (=0)
  00000011            00046 RECORD_MODE      EQU  0x11
                      00047 ; Comptador per comptar periodes de PWM del servo (20ms)
  00000012            00048 Tics20           EQU  0x12
                      00049 ; Codi dir: 1 --> Max Left
                      00050            ;2 --> High Left
                      00051            ;3 --> Mid Left
                      00052            ;4 --> Low Left
                      00053            ;5 --> Straight
                      00054            ;6 --> Low Right
                      00055            ;7 --> Mid Right 
                      00056            ;8 --> High Right
                      00057            ;9 --> Max Right
  00000013            00058 DIR_ACTUAL       EQU  0x13
                      00059 ; Flag per saber si la direccio és esquerra (=1) o dreta (=0)
  00000014            00060 IS_LEFT          EQU  0x14
                      00061 ; Comptador per comptar el THigh del PWM del servo
  00000015            00062 ContTHigh        EQU  0x15
                      00063 ; Comptador per comptar el numero de passos que li toca al PWM
  00000016            00064 ContPWML         EQU  0x16
  00000017            00065 ContPWMH         EQU  0x17
                      00066 ; Comptador per comptar el delay entre save i save de 1ms en 1ms i fins a 1min
  00000018            00067 TicsDelayL       EQU  0x18
  00000019            00068 TicsDelayH       EQU  0x19
                      00069 ; Comptador per comptar el numero de Saves que ha fet per una ruta (max 30)
  0000001A            00070 ContSaves        EQU  0x1A
                      00071 ; Flag per saber si estem en mode pilot automatic (=1) o no (=0)
  0000001B            00072 AUTOP_MODE       EQU  0x1B
                      00073 ; Flag per saber si estem fent una espera de delay en el mode automatic 
                      00074 ; (=1) o no (=0)
  0000001C            00075 DELAY_ESPERA_EN  EQU  0x1C
                      00076 ; Temps de delay que tenim entre un save i un altre
                      00077 ; El delay el treiem del que llegim a la RAM en el mode pilot automatic
  0000001D            00078 TIME_DELAY_L     EQU  0x1D
  0000001E            00079 TIME_DELAY_H     EQU  0x1E
                      00080 ; Temps en el que el motor DC estara configurat a HIGH 
  0000001F            00081 T_HIGH_DC        EQU  0x1F
                      00082 ; Temps en el que el motor DC estara configurat a LOW 
  00000020            00083 T_LOW_DC         EQU  0x20
                      00084 ; Flag per indicar que el PWM del motor DC esta a HIGH
  00000021            00085 DC_IS_SET        EQU  0x21
                      00086 ; Els Tics configurats de periode del motor DC
  00000022            00087 TicsDC           EQU  0x22
                      00088 
Warning[205]: Found directive in column 1. (ORG)
                      00089 ORG 0x0000
Warning[203]: Found opcode in column 1. (GOTO)
MPASM 5.86             NEWPIC_8B_GENERAL.ASM   2-27-2023  17:45:21         PAGE  3


LOC  OBJECT CODE     LINE SOURCE TEXT
  VALUE

000000 EF?? F???      00090 GOTO MAIN
Warning[205]: Found directive in column 1. (ORG)
                      00091 ORG 0x0008
Warning[203]: Found opcode in column 1. (GOTO)
000008 EF?? F???      00092 GOTO HIGH_RSI
Warning[205]: Found directive in column 1. (ORG)
                      00093 ORG 0x0018
Warning[203]: Found opcode in column 1. (RETFIE)
000018 0011           00094 RETFIE FAST
                      00095 
                      00096 ;--------------------------------------
                      00097 ; FUNCIONS PEL TIMER
                      00098 ;--------------------------------------
                      00099 ; Recarrega el valor del timer per una interrupció cada 1ms
00001A                00100 LOAD_TMR
00001A 0EF0           00101   MOVLW HIGH(.61536)
00001C 6ED7           00102   MOVWF TMR0H,0
00001E 0E60           00103   MOVLW LOW(.61536)
000020 6ED6           00104   MOVWF TMR0L,0  
000022 0012           00105   RETURN
                      00106 
                      00107 ; Reseteja el comptador de 1min   
000024                00108 RESET_TICS_MIN
000024 6A0B           00109   CLRF ALARM_EN
000026 6A09           00110   CLRF TicsMinH
000028 6A0A           00111   CLRF TicsMinL
00002A 0012           00112   RETURN
                      00113   
                      00114 ; Reseteja el comptador de delay entre save i save
00002C                00115 RESET_TICS_DELAY
00002C 6A19           00116   CLRF TicsDelayH
00002E 6A18           00117   CLRF TicsDelayL
000030 0012           00118   RETURN
                      00119 
                      00120 ; Reseteja el comptador de 1seg   
000032                00121 RESET_TICS_SEG
000032 680E           00122   SETF AUTOP_EN
000034 6A10           00123   CLRF TicsSegH
000036 6A0F           00124   CLRF TicsSegL
000038 0012           00125   RETURN
                      00126   
                      00127 ; Reseteja el comptador de 0,5seg   
00003A                00128 RESET_TICS_ALARM
00003A 6A0D           00129   CLRF TicsAlarmH
00003C 6A0C           00130   CLRF TicsAlarmL
00003E 0012           00131   RETURN
                      00132 
                      00133 ; Gestiona totes les interrupcions (nomes tenim de timer)
000040                00134 HIGH_RSI
000040 A4F2           00135   BTFSS INTCON,TMR0IF,0
000042 0011           00136   RETFIE FAST
000044 94F2           00137   BCF INTCON,TMR0IF,0
000046 EC?? F???      00138   CALL LOAD_TMR
MPASM 5.86             NEWPIC_8B_GENERAL.ASM   2-27-2023  17:45:21         PAGE  4


LOC  OBJECT CODE     LINE SOURCE TEXT
  VALUE

00004A EC?? F???      00139   CALL CHECK_PWM_DC
00004E EC?? F???      00140   CALL CHECK_20ms
000052 B01C           00141   BTFSC DELAY_ESPERA_EN,0
000054 EC?? F???      00142   CALL CHECK_TICS_DELAY_AUTO
000058 B011           00143   BTFSC RECORD_MODE,0
00005A EC?? F???      00144   CALL CHECK_TICS_DELAY_REC
00005E B00E           00145   BTFSC AUTOP_EN,0
000060 EC?? F???      00146   CALL CHECK_TICS_SEG
000064 A00B           00147   BTFSS ALARM_EN,0
000066 EF?? F???      00148   GOTO CHECK_TICS_MIN
00006A EF?? F???      00149   GOTO MINUTE_PASSED
                      00150 
                      00151 ; Espera el temps de delay que se li ha assignat
00006E                00152 CHECK_TICS_DELAY_AUTO
00006E 2A18           00153   INCF TicsDelayL,1
000070 B0D8           00154   BTFSC STATUS,C,0
000072 2A19           00155   INCF TicsDelayH,1
000074 501E           00156   MOVF TIME_DELAY_H,0
000076 5C19           00157   SUBWF TicsDelayH,0
000078 A4D8           00158   BTFSS STATUS,Z,0
00007A 0012           00159   RETURN
00007C 501D           00160   MOVF TIME_DELAY_L,0
00007E 5C18           00161   SUBWF TicsDelayL,0
000080 A4D8           00162   BTFSS STATUS,Z,0
000082 0012           00163   RETURN
                      00164   ; Ha passat el temps de delay aixi que desactivem el enable de espera
000084 6A1C           00165   CLRF DELAY_ESPERA_EN
000086 0012           00166   RETURN
                      00167   
                      00168 ; Compta el delay de Save en Save en el mode Record i avisa si ha passat 1min
000088                00169 CHECK_TICS_DELAY_REC
000088 2A18           00170   INCF TicsDelayL,1
00008A B0D8           00171   BTFSC STATUS,C,0
00008C 2A19           00172   INCF TicsDelayH,1
00008E 0EE5           00173   MOVLW HIGH(.58800) 
000090 5C19           00174   SUBWF TicsDelayH,0
000092 A4D8           00175   BTFSS STATUS,Z,0
000094 0012           00176   RETURN
000096 0EB0           00177   MOVLW LOW(.58800)
000098 5C18           00178   SUBWF TicsDelayL,0
00009A A4D8           00179   BTFSS STATUS,Z,0
00009C 0012           00180   RETURN
00009E EC?? F???      00181   CALL TIME_SAVE
0000A2 6A11           00182   CLRF RECORD_MODE
0000A4 EC?? F???      00183   CALL RESET_TICS_MIN
0000A8 6805           00184   SETF MANUAL_MODE
0000AA EC?? F???      00185   CALL RGB_GREEN
0000AE 0012           00186   RETURN
                      00187 
                      00188 ; Crea el PWM del motor DC
0000B0                00189 CHECK_PWM_DC
0000B0 EF?? F???      00190   GOTO ASSIGN_PWM_VEL
Warning[207]: Found label after column 1. (CONTINUE_VEL)
MPASM 5.86             NEWPIC_8B_GENERAL.ASM   2-27-2023  17:45:21         PAGE  5


LOC  OBJECT CODE     LINE SOURCE TEXT
  VALUE

0000B4                00191   CONTINUE_VEL
0000B4 2A22           00192   INCF TicsDC,1
0000B6 B021           00193   BTFSC DC_IS_SET,0
0000B8 EF?? F???      00194   GOTO TEMPS_DC_HIGH
0000BC EF?? F???      00195   GOTO TEMPS_DC_LOW
Warning[207]: Found label after column 1. (GO_BACK_DC)
0000C0                00196   GO_BACK_DC
0000C0 0012           00197   RETURN
                      00198  
                      00199 ; Assigna el periode del PWM segons la seva velocitat
0000C2                00200 ASSIGN_PWM_VEL
0000C2 0E01           00201   MOVLW .1
0000C4 5C06           00202   SUBWF VEL_ACTUAL,0
0000C6 B4D8           00203   BTFSC STATUS,Z,0
0000C8 EF?? F???      00204   GOTO PWM_VEL_H
0000CC 0E02           00205   MOVLW .2
0000CE 5C06           00206   SUBWF VEL_ACTUAL,0
0000D0 B4D8           00207   BTFSC STATUS,Z,0
0000D2 EF?? F???      00208   GOTO PWM_VEL_M
0000D6 0E03           00209   MOVLW .3
0000D8 5C06           00210   SUBWF VEL_ACTUAL,0
0000DA B4D8           00211   BTFSC STATUS,Z,0
0000DC EF?? F???      00212   GOTO PWM_VEL_L
0000E0 0E04           00213   MOVLW .4
0000E2 5C06           00214   SUBWF VEL_ACTUAL,0
0000E4 B4D8           00215   BTFSC STATUS,Z,0
0000E6 EF?? F???      00216   GOTO PWM_VEL_0
0000EA 0E05           00217   MOVLW .5
0000EC 5C06           00218   SUBWF VEL_ACTUAL,0
0000EE B4D8           00219   BTFSC STATUS,Z,0
0000F0 EF?? F???      00220   GOTO PWM_VEL_L
0000F4 0E06           00221   MOVLW .6
0000F6 5C06           00222   SUBWF VEL_ACTUAL,0
0000F8 B4D8           00223   BTFSC STATUS,Z,0
0000FA EF?? F???      00224   GOTO PWM_VEL_M
0000FE 0E07           00225   MOVLW .7
000100 5C06           00226   SUBWF VEL_ACTUAL,0
000102 B4D8           00227   BTFSC STATUS,Z,0
000104 EF?? F???      00228   GOTO PWM_VEL_H
                      00229 
                      00230 ; Assigna el periode de PWM de velocitat low en el motor DC
000108                00231 PWM_VEL_L
000108 0E01           00232   MOVLW .1
00010A 6E1F           00233   MOVWF T_HIGH_DC
00010C 0E04           00234   MOVLW .4
00010E 6E20           00235   MOVWF T_LOW_DC
000110 EF?? F???      00236   GOTO CONTINUE_VEL
                      00237   
                      00238 ; Assigna el periode de PWM de velocitat mid en el motor DC
000114                00239 PWM_VEL_M
000114 0E02           00240   MOVLW .2
000116 6E1F           00241   MOVWF T_HIGH_DC
000118 0E03           00242   MOVLW .3
MPASM 5.86             NEWPIC_8B_GENERAL.ASM   2-27-2023  17:45:21         PAGE  6


LOC  OBJECT CODE     LINE SOURCE TEXT
  VALUE

00011A 6E20           00243   MOVWF T_LOW_DC
00011C EF?? F???      00244   GOTO CONTINUE_VEL
                      00245   
                      00246 ; Assigna el periode de PWM de velocitat high en el motor DC
000120                00247 PWM_VEL_H
000120 EC?? F???      00248   CALL ACTIVA_PORT_DC
000124 EF?? F???      00249   GOTO GO_BACK_DC
                      00250  
                      00251 ; Assigna el periode de PWM de velocitat 0 en el motor DC
000128                00252 PWM_VEL_0
000128 9C8A           00253   BCF LATB,6,0
00012A 9E8A           00254   BCF LATB,7,0
00012C EF?? F???      00255   GOTO GO_BACK_DC
                      00256 
                      00257 ; Activa el pin del PWM del motor DC segons si la velocitat es negativa o no
000130                00258 ACTIVA_PORT_DC
000130 A004           00259   BTFSS IS_NEGATIVE,0
000132 EC?? F???      00260   CALL ACTIVA_RB6
000136 B004           00261   BTFSC IS_NEGATIVE,0
000138 EC?? F???      00262   CALL ACTIVA_RB7
00013C 0012           00263   RETURN
                      00264  
                      00265 ; Activa el pin RB6 (pel PWM del motor DC)
00013E                00266 ACTIVA_RB6
00013E 8C8A           00267   BSF LATB,6,0
000140 9E8A           00268   BCF LATB,7,0
000142 0012           00269   RETURN
                      00270   
                      00271 ; Activa el pin RB7 (pel PWM del motor DC)
000144                00272 ACTIVA_RB7
000144 9C8A           00273   BCF LATB,6,0
000146 8E8A           00274   BSF LATB,7,0
000148 0012           00275   RETURN
                      00276   
                      00277 ; Desactiva el pin del PWM del motor DC segons si la velocitat es negativa o no
00014A                00278 DESACTIVA_PORT_DC
00014A A004           00279   BTFSS IS_NEGATIVE,0
00014C 9C8A           00280   BCF LATB,6,0
00014E B004           00281   BTFSC IS_NEGATIVE,0
000150 9E8A           00282   BCF LATB,7,0
000152 0012           00283   RETURN
                      00284  
                      00285 ; Periode de temps que el motor DC estara apagat
000154                00286 TEMPS_DC_LOW  
000154 5020           00287   MOVF T_LOW_DC,0
000156 5C22           00288   SUBWF TicsDC,0
000158 A4D8           00289   BTFSS STATUS,Z,0
00015A EF?? F???      00290   GOTO GO_BACK_DC
00015E EC?? F???      00291   CALL ACTIVA_PORT_DC
000162 6A22           00292   CLRF TicsDC
000164 6821           00293   SETF DC_IS_SET
000166 EF?? F???      00294   GOTO GO_BACK_DC
                      00295  
MPASM 5.86             NEWPIC_8B_GENERAL.ASM   2-27-2023  17:45:21         PAGE  7


LOC  OBJECT CODE     LINE SOURCE TEXT
  VALUE

                      00296 ; Periode de temps que el motor DC estara ences  
00016A                00297 TEMPS_DC_HIGH
00016A 501F           00298   MOVF T_HIGH_DC,0
00016C 5C22           00299   SUBWF TicsDC,0
00016E A4D8           00300   BTFSS STATUS,Z,0
000170 EF?? F???      00301   GOTO GO_BACK_DC
000174 6A22           00302   CLRF TicsDC
000176 EC?? F???      00303   CALL DESACTIVA_PORT_DC
00017A 6A21           00304   CLRF DC_IS_SET
00017C EF?? F???      00305   GOTO GO_BACK_DC
                      00306   
                      00307 ; Comprova si ha passat 20ms (1 periode de PWM del servo)
000180                00308 CHECK_20ms
000180 2A12           00309   INCF Tics20,1
000182 0E14           00310   MOVLW .20
000184 5C12           00311   SUBWF Tics20,0
000186 B4D8           00312   BTFSC STATUS,Z,0
000188 EC?? F???      00313   CALL NEW_SERVO_PWM
00018C 0012           00314   RETURN
                      00315   
                      00316 ; Posa el temps a 1 que marca la direccio actual 
00018E                00317 NEW_SERVO_PWM
00018E C013 F015      00318   MOVFF DIR_ACTUAL,ContTHigh
000192 8489           00319   BSF LATA,2,0
000194 EC?? F???      00320   CALL POS_INICIAL_SERVO
000198 0E01           00321   MOVLW .1
00019A 5C15           00322   SUBWF ContTHigh,0
00019C B4D8           00323   BTFSC STATUS,Z,0
00019E EF?? F???      00324   GOTO END_PASSOS
0001A2 0615           00325   DECF ContTHigh,1
Warning[207]: Found label after column 1. (T_PASSOS)
0001A4                00326   T_PASSOS
0001A4 EC?? F???      00327     CALL COUNT_PAS_SERVO
0001A8 0615           00328     DECF ContTHigh,1
0001AA A4D8           00329     BTFSS STATUS,Z,0
0001AC EF?? F???      00330     GOTO T_PASSOS
Warning[207]: Found label after column 1. (END_PASSOS)
0001B0                00331   END_PASSOS
0001B0 9489           00332   BCF LATA,2,0
0001B2 6A12           00333   CLRF Tics20
0001B4 0012           00334   RETURN
                      00335   
                      00336 ; Comprova si ha passat 1 minut d'inactivitat (60000ms = 1min)
0001B6                00337 CHECK_TICS_MIN
0001B6 B01B           00338   BTFSC AUTOP_MODE,0
0001B8 0011           00339   RETFIE FAST
0001BA B011           00340   BTFSC RECORD_MODE,0
0001BC 0011           00341   RETFIE FAST
0001BE 2A0A           00342   INCF TicsMinL,1
0001C0 B0D8           00343   BTFSC STATUS,C,0
0001C2 2A09           00344   INCF TicsMinH,1
0001C4 0EE5           00345   MOVLW HIGH(.58800)
0001C6 5C09           00346   SUBWF TicsMinH,0
MPASM 5.86             NEWPIC_8B_GENERAL.ASM   2-27-2023  17:45:21         PAGE  8


LOC  OBJECT CODE     LINE SOURCE TEXT
  VALUE

0001C8 A4D8           00347   BTFSS STATUS,Z,0
0001CA 0011           00348   RETFIE FAST
0001CC 0EB0           00349   MOVLW LOW(.58800)
0001CE 5C0A           00350   SUBWF TicsMinL,0
0001D0 A4D8           00351   BTFSS STATUS,Z,0
0001D2 0011           00352   RETFIE FAST
                      00353 ; Aqui ha passat 1min
Warning[203]: Found opcode in column 1. (MOVLW)
0001D4 0E01           00354 MOVLW .1
Warning[203]: Found opcode in column 1. (MOVWF)
0001D6 6E0B           00355 MOVWF ALARM_EN
Warning[203]: Found opcode in column 1. (BSF)
0001D8 8689           00356 BSF LATA,3,0
Warning[203]: Found opcode in column 1. (CALL)
0001DA EC?? F???      00357 CALL RESET_TICS_ALARM
                      00358 
                      00359 ; Activa l'alarma fent pampallugues canviant cada 0,5seg el led (500ms = 0,5seg)
0001DE                00360 MINUTE_PASSED
0001DE 2A0C           00361   INCF TicsAlarmL,1
0001E0 B0D8           00362   BTFSC STATUS,C,0
0001E2 2A0D           00363   INCF TicsAlarmH,1
0001E4 0E01           00364   MOVLW HIGH(.500)
0001E6 5C0D           00365   SUBWF TicsAlarmH,0
0001E8 A4D8           00366   BTFSS STATUS,Z,0
0001EA 0011           00367   RETFIE FAST
0001EC 0EF4           00368   MOVLW LOW(.500)
0001EE 5C0C           00369   SUBWF TicsAlarmL,0
0001F0 A4D8           00370   BTFSS STATUS,Z,0
0001F2 0011           00371   RETFIE FAST
0001F4 7689           00372   BTG LATA,3,0
0001F6 EC?? F???      00373   CALL RESET_TICS_ALARM
0001FA 0011           00374   RETFIE FAST
                      00375 
                      00376 ; Comprova si el polsador Record ha passat 1 segon polsat
0001FC                00377 CHECK_TICS_SEG
0001FC 2A0F           00378   INCF TicsSegL,1
0001FE B0D8           00379   BTFSC STATUS,C,0
000200 2A10           00380   INCF TicsSegH,1
000202 0E03           00381   MOVLW HIGH(.1000)
000204 5C10           00382   SUBWF TicsSegH,0
000206 A4D8           00383   BTFSS STATUS,Z,0
000208 0012           00384   RETURN
00020A 0EE8           00385   MOVLW LOW(.1000)
00020C 5C0F           00386   SUBWF TicsSegL,0
00020E A4D8           00387   BTFSS STATUS,Z,0
000210 0012           00388   RETURN
                      00389   ; Ha passat 1 segon per tant canviem al mode pilot automatic
000212 A005           00390   BTFSS MANUAL_MODE,0
000214 0012           00391   RETURN
                      00392   ; Si estem canviant de mode a recording a manual, ignorem la pulsacio
000216 B011           00393   BTFSC RECORD_MODE,0
000218 0012           00394   RETURN
                      00395   ; Si no hem guardat res, no canviem al mode pilot automatic
MPASM 5.86             NEWPIC_8B_GENERAL.ASM   2-27-2023  17:45:21         PAGE  9


LOC  OBJECT CODE     LINE SOURCE TEXT
  VALUE

00021A 681B           00396   SETF AUTOP_MODE
00021C EC?? F???      00397   CALL RGB_WHITE
000220 EC?? F???      00398   CALL INITIAL_POSITION_RAM
000224 0012           00399   RETURN
                      00400     
                      00401 ;--------------------------------------
                      00402 ; FUNCIONS PELS POLSADORS (per polling)
                      00403 ;--------------------------------------
                      00404 ; Actualitza el led de velocitat negativa
000226                00405 UPDATE_SPEED
000226 0E04           00406   MOVLW .4
000228 5C06           00407   SUBWF VEL_ACTUAL,0
00022A A8D8           00408   BTFSS STATUS,N,0
00022C 9689           00409   BCF LATA,3,0
00022E B8D8           00410   BTFSC STATUS,N,0
000230 8689           00411   BSF LATA,3,0
000232 0012           00412   RETURN
                      00413 
                      00414 ; Canvia el mode a manual
000234                00415 CHANGE_TO_MANUAL
000234 6805           00416   SETF MANUAL_MODE
000236 EC?? F???      00417   CALL RGB_GREEN
00023A EF?? F???      00418   GOTO ESPERA_FI_P0
                      00419 
                      00420 ; Canvia el mode a creuer
00023E                00421 CHANGE_TO_CRUISE
00023E 6A05           00422   CLRF MANUAL_MODE
000240 EC?? F???      00423   CALL RGB_BLUE
000244 EF?? F???      00424   GOTO ESPERA_FI_P0  
                      00425 
                      00426 ; Canvia el mode del polsador manual pel corresponent (filtrant rebots)
000248                00427 CHANGE_MANUAL_MODE
000248 EC?? F???      00428   CALL COUNT_20ms
00024C B011           00429   BTFSC RECORD_MODE,0
00024E EF?? F???      00430   GOTO ESPERA_FI_P0
000252 EC?? F???      00431   CALL RESET_TICS_MIN
000256 A005           00432   BTFSS MANUAL_MODE,0
000258 EF?? F???      00433   GOTO CHANGE_TO_MANUAL
00025C EF?? F???      00434   GOTO CHANGE_TO_CRUISE
Warning[207]: Found label after column 1. (ESPERA_FI_P0)
000260                00435   ESPERA_FI_P0
000260 A081           00436     BTFSS PORTB,0,0
000262 EF?? F???      00437     GOTO ESPERA_FI_P0
000266 EC?? F???      00438   CALL COUNT_20ms
00026A EC?? F???      00439   CALL UPDATE_SPEED
00026E 0012           00440   RETURN
                      00441 
                      00442 ; Canvia el mode a gravacio
000270                00443 CHANGE_TO_RECORD
000270 6811           00444   SETF RECORD_MODE
000272 EC?? F???      00445   CALL NETEJA_RAM
000276 EC?? F???      00446   CALL INITIAL_POSITION_RAM
00027A EC?? F???      00447   CALL RESET_TICS_DELAY
MPASM 5.86             NEWPIC_8B_GENERAL.ASM   2-27-2023  17:45:21         PAGE 10


LOC  OBJECT CODE     LINE SOURCE TEXT
  VALUE

00027E 6A1A           00448   CLRF ContSaves
000280 EC?? F???      00449   CALL RGB_RED
000284 EF?? F???      00450   GOTO FINAL_P1
                      00451 
                      00452 ; Canvia el mode a no gravacio
000288                00453 CHANGE_TO_NO_RECORD
000288 6A11           00454   CLRF RECORD_MODE
00028A EC?? F???      00455   CALL RGB_GREEN
00028E 6805           00456   SETF MANUAL_MODE
000290 0E00           00457   MOVLW .0
000292 5C1A           00458   SUBWF ContSaves,0
000294 A4D8           00459   BTFSS STATUS,Z,0
000296 EC?? F???      00460   CALL TIME_SAVE
00029A EF?? F???      00461   GOTO FINAL_P1
                      00462   
                      00463 ; Activa i desactiva el mode de gravacio i pilot automatic (filtrant rebots)
                      00464 ; Es canvia de mode quan deixem anar el polsador
00029E                00465 CHANGE_RECORDING_MODE
00029E EC?? F???      00466   CALL COUNT_20ms
0002A2 A005           00467   BTFSS MANUAL_MODE,0
0002A4 0012           00468   RETURN
0002A6 EC?? F???      00469   CALL RESET_TICS_MIN
0002AA EC?? F???      00470   CALL RESET_TICS_SEG
0002AE EC?? F???      00471   CALL UPDATE_SPEED
Warning[207]: Found label after column 1. (ESPERA_FI_P1)
0002B2                00472   ESPERA_FI_P1
0002B2 A281           00473     BTFSS PORTB,1,0
0002B4 EF?? F???      00474     GOTO ESPERA_FI_P1
0002B8 EC?? F???      00475   CALL COUNT_20ms
0002BC 6A0E           00476   CLRF AUTOP_EN
                      00477   ; Si s'ha activat el mode pilot automatic, no canviem de mode de gravacio
0002BE B01B           00478   BTFSC AUTOP_MODE,0
0002C0 EF?? F???      00479   GOTO REVISA_AUTOP
0002C4 A011           00480   BTFSS RECORD_MODE,0
0002C6 EF?? F???      00481   GOTO CHANGE_TO_RECORD
0002CA EF?? F???      00482   GOTO CHANGE_TO_NO_RECORD
Warning[207]: Found label after column 1. (FINAL_P1)
0002CE                00483   FINAL_P1
0002CE 0012           00484   RETURN
                      00485 
                      00486 ; Revisa si s'hauria d'activar el mode pilot automatic mirant si té alguna ruta
0002D0                00487 REVISA_AUTOP
0002D0 0E00           00488   MOVLW .0
0002D2 5C1A           00489   SUBWF ContSaves,0
0002D4 A4D8           00490   BTFSS STATUS,Z,0 
0002D6 EF?? F???      00491   GOTO FINAL_P1
0002DA 6A1B           00492   CLRF AUTOP_MODE
0002DC EC?? F???      00493   CALL RGB_GREEN
0002E0 EF?? F???      00494   GOTO FINAL_P1
                      00495   
                      00496 ; Guarda la velocitat, direccio i delay si estem en el mode record
0002E4                00497 SAVE_PARAMS
0002E4 EC?? F???      00498   CALL COUNT_20ms
MPASM 5.86             NEWPIC_8B_GENERAL.ASM   2-27-2023  17:45:21         PAGE 11


LOC  OBJECT CODE     LINE SOURCE TEXT
  VALUE

0002E8 A011           00499   BTFSS RECORD_MODE,0
0002EA EF?? F???      00500   GOTO ESPERA_FI_P2
0002EE 2A1A           00501   INCF ContSaves,1
0002F0 0E1F           00502   MOVLW .31
0002F2 5C1A           00503   SUBWF ContSaves,0
0002F4 B4D8           00504   BTFSC STATUS,Z,0
0002F6 EF?? F???      00505   GOTO SAVES_30
0002FA 0E01           00506   MOVLW .1
0002FC 5C1A           00507   SUBWF ContSaves,0
0002FE A4D8           00508   BTFSS STATUS,Z,0
000300 EC?? F???      00509   CALL TIME_SAVE
                      00510   ; Guardar velocitat
000304 C006 FFEE      00511   MOVFF VEL_ACTUAL,POSTINC0
                      00512   ; Guardar direccio
000308 C013 FFEE      00513   MOVFF DIR_ACTUAL,POSTINC0
                      00514 
                      00515   ; Reiniciar delay
00030C EC?? F???      00516   CALL RESET_TICS_DELAY
000310 EC?? F???      00517   CALL RESET_TICS_MIN
Warning[207]: Found label after column 1. (ESPERA_FI_P2)
000314                00518   ESPERA_FI_P2
000314 A481           00519     BTFSS PORTB,2,0
000316 EF?? F???      00520     GOTO ESPERA_FI_P2
00031A EC?? F???      00521   CALL COUNT_20ms
00031E 0012           00522   RETURN
                      00523 
000320                00524 TIME_SAVE
                      00525   ; Guardar delay (primer Low i despres High)
000320 C018 FFEE      00526   MOVFF TicsDelayL,POSTINC0
000324 C019 FFEE      00527   MOVFF TicsDelayH,POSTINC0
000328 0012           00528   RETURN
                      00529   
                      00530 ; Tornem al mode manual perque s'han fet 30 saves (el maxim)
00032A                00531 SAVES_30
00032A EC?? F???      00532   CALL TIME_SAVE
00032E 061A           00533   DECF ContSaves,1
000330 6A11           00534   CLRF RECORD_MODE
000332 EC?? F???      00535   CALL RESET_TICS_MIN
000336 6805           00536   SETF MANUAL_MODE
000338 EC?? F???      00537   CALL RGB_GREEN
00033C EF?? F???      00538   GOTO ESPERA_FI_P2
                      00539 ;--------------------------------------
                      00540 ; FUNCIONS DE CONFIGURACIONS DE LA RAM
                      00541 ;--------------------------------------
                      00542 ; Inicialitza la RAM a la posicio inicial on guardarem els valors 
                      00543 ; dels parametres. Comença a la posicio 0 del Bank 1
000340                00544 INITIAL_POSITION_RAM
                      00545   ; Situem a l'adreça 0
000340 6AE9           00546   CLRF FSR0L,0
                      00547   ; Situem al Bank 1
000342 0E01           00548   MOVLW .1
000344 6EEA           00549   MOVWF FSR0H,0
000346 0012           00550   RETURN
MPASM 5.86             NEWPIC_8B_GENERAL.ASM   2-27-2023  17:45:21         PAGE 12


LOC  OBJECT CODE     LINE SOURCE TEXT
  VALUE

                      00551   
                      00552 
                      00553 ; Neteja (posa a 0) les 128 primeres adreces del Bank 1
                      00554 ; Ja que com a maxim omplirem 4@ * 30saves = 120@
000348                00555 NETEJA_RAM
000348 EC?? F???      00556   CALL INITIAL_POSITION_RAM
00034C 6A07           00557   CLRF ContInstL
Warning[207]: Found label after column 1. (NETEJA)
00034E                00558   NETEJA
00034E 2A07           00559     INCF ContInstL,1
000350 6AEE           00560     CLRF POSTINC0,0
000352 A6D8           00561     BTFSS STATUS,OV,0
000354 EF?? F???      00562     GOTO NETEJA
000358 0012           00563   RETURN
                      00564 
                      00565   
                      00566 ;--------------------------------------
                      00567 ; FUNCIONS DE CONFIGURACIONS INICIALS
                      00568 ;--------------------------------------
                      00569 ; Config OSC per tenir F=16MHz
00035A                00570 INIT_OSC
00035A 0E60           00571   MOVLW b'01100000'
00035C 6ED3           00572   MOVWF OSCCON,0
00035E 8C9B           00573   BSF OSCTUNE,PLLEN,0
000360 0012           00574   RETURN
                      00575 
                      00576 ; Inicialitza ports a utilitzar
000362                00577 INIT_PORTS
000362 8092           00578   BSF TRISA,0,0
000364 8292           00579   BSF TRISA,1,0
000366 9492           00580   BCF TRISA,2,0 
000368 9692           00581   BCF TRISA,3,0
00036A 8093           00582   BSF TRISB,0,0
00036C 8293           00583   BSF TRISB,1,0
00036E 8493           00584   BSF TRISB,2,0
000370 9693           00585   BCF TRISB,3,0
000372 9893           00586   BCF TRISB,4,0
000374 9C93           00587   BCF TRISB,6,0
000376 9E93           00588   BCF TRISB,7,0
000378 6A94           00589   CLRF TRISC,0
00037A 6A95           00590   CLRF TRISD,0
00037C 9096           00591   BCF TRISE,0,0
00037E 9296           00592   BCF TRISE,1,0
000380 9496           00593   BCF TRISE,2,0
000382 9EF1           00594   BCF INTCON2,RBPU,0
000384 0012           00595   RETURN
                      00596 
                      00597 ; Inicialitza variables a utilitzar
000386                00598 INIT_VARS
000386 0E37           00599   MOVLW b'00110111'
000388 6E00           00600   MOVWF CONST_7SEG_HIGH
00038A 0E75           00601   MOVLW b'01110101'
00038C 6E01           00602   MOVWF CONST_7SEG_MID
MPASM 5.86             NEWPIC_8B_GENERAL.ASM   2-27-2023  17:45:21         PAGE 13


LOC  OBJECT CODE     LINE SOURCE TEXT
  VALUE

00038E 0E0D           00603   MOVLW b'00001101'
000390 6E02           00604   MOVWF CONST_7SEG_LOW
000392 0E7D           00605   MOVLW b'01111101'
000394 6E03           00606   MOVWF CONST_7SEG_0
000396 6805           00607   SETF MANUAL_MODE
000398 9689           00608   BCF LATA,3,0
00039A C003 FF8C      00609   MOVFF CONST_7SEG_0,LATD
00039E EC?? F???      00610   CALL RGB_GREEN
0003A2 EC?? F???      00611   CALL RESET_TICS_MIN
0003A6 0E04           00612   MOVLW .4
0003A8 6E06           00613   MOVWF VEL_ACTUAL
0003AA 0E05           00614   MOVLW .5
0003AC 6E13           00615   MOVWF DIR_ACTUAL
0003AE 6A0B           00616   CLRF ALARM_EN
0003B0 6A04           00617   CLRF IS_NEGATIVE
0003B2 6A0E           00618   CLRF AUTOP_EN
0003B4 6A11           00619   CLRF RECORD_MODE
0003B6 6A12           00620   CLRF Tics20
0003B8 EC?? F???      00621   CALL RESET_TICS_DELAY
0003BC 6A1A           00622   CLRF ContSaves
0003BE 6A22           00623   CLRF TicsDC
0003C0 6821           00624   SETF DC_IS_SET
                      00625   ; Inicialitzem els PWM
0003C2 9489           00626   BCF LATA,2,0
0003C4 8C8A           00627   BSF LATB,6,0              
0003C6 9E8A           00628   BCF LATB,7,0
                      00629   ; Posem els 2 leds del mig de la barra encesos
0003C8 EC?? F???      00630   CALL CLEAN_LED_BAR
0003CC 888B           00631   BSF LATC,4,0
0003CE 8A8B           00632   BSF LATC,5,0
0003D0 0012           00633   RETURN
                      00634 
                      00635 ; Inicialitza ADC pel joystick (AN0 i AN1)
0003D2                00636 INIT_ADC
                      00637   ;Analog OUT (AN0 & AN1) i deshabilita Vref
0003D2 0E0D           00638   MOVLW b'00001101'
0003D4 6EC1           00639   MOVWF ADCON1,0
                      00640   ;Clear ADCON2
0003D6 6AC0           00641   CLRF ADCON2,0
                      00642   ;Enable ADC i selecciona Channel 0
0003D8 0E01           00643   MOVLW b'00000001'
0003DA 6EC2           00644   MOVWF ADCON0,0
0003DC 0012           00645   RETURN
                      00646 
                      00647 ; Inicialitza les interrupcions a utilitzar (nomes la del timer)
0003DE                00648 INIT_IRQS
0003DE 9ED0           00649   BCF RCON,IPEN,0
0003E0 0EC0           00650   MOVLW b'11000000'
0003E2 6EF2           00651   MOVWF INTCON,0
0003E4 0012           00652   RETURN
                      00653 
                      00654 ; Inicialitza el timer a utilitzar (TIMER0)
0003E6                00655 INIT_TMR
MPASM 5.86             NEWPIC_8B_GENERAL.ASM   2-27-2023  17:45:21         PAGE 14


LOC  OBJECT CODE     LINE SOURCE TEXT
  VALUE

0003E6 0E8F           00656   MOVLW b'10001111'
0003E8 6ED5           00657   MOVWF T0CON,0
0003EA 8AF2           00658   BSF INTCON,TMR0IE,0
0003EC 0012           00659   RETURN
                      00660 
                      00661 ;--------------------------------------
                      00662 ; MAIN I LOOP DEL PROGRAMA
                      00663 ;--------------------------------------
0003EE                00664 MAIN
0003EE EC?? F???      00665   CALL INIT_OSC
0003F2 EC?? F???      00666   CALL INIT_PORTS
0003F6 EC?? F???      00667   CALL INIT_VARS
0003FA EC?? F???      00668   CALL INIT_ADC
0003FE EC?? F???      00669   CALL INIT_IRQS
000402 EC?? F???      00670   CALL INIT_TMR
                      00671   
000406                00672 LOOP
                      00673 ; Reprodueix ruta si estem en mode pilot automatic
Warning[203]: Found opcode in column 1. (BTFSC)
000406 B01B           00674 BTFSC AUTOP_MODE,0
Warning[203]: Found opcode in column 1. (GOTO)
000408 EF?? F???      00675 GOTO REPRODUIR_RUTA
                      00676 ; Consulta Polsador Manual
Warning[203]: Found opcode in column 1. (BTFSS)
00040C A081           00677 BTFSS PORTB,0,0 
Warning[203]: Found opcode in column 1. (CALL)
00040E EC?? F???      00678 CALL CHANGE_MANUAL_MODE
                      00679 ; Consulta Polsador Recording
Warning[203]: Found opcode in column 1. (BTFSS)
000412 A281           00680 BTFSS PORTB,1,0
Warning[203]: Found opcode in column 1. (CALL)
000414 EC?? F???      00681 CALL CHANGE_RECORDING_MODE
                      00682 ; Consulta Polsador Save
Warning[203]: Found opcode in column 1. (BTFSS)
000418 A481           00683 BTFSS PORTB,2,0
Warning[203]: Found opcode in column 1. (CALL)
00041A EC?? F???      00684 CALL SAVE_PARAMS
                      00685 ; Check direccio
Warning[203]: Found opcode in column 1. (CALL)
00041E EC?? F???      00686 CALL TAKE_DIRECTION 
                      00687 ; Check Mode i velocitat si Manual
Warning[203]: Found opcode in column 1. (BTFSS)
000422 A005           00688 BTFSS MANUAL_MODE,0
Warning[203]: Found opcode in column 1. (GOTO)
000424 EF?? F???      00689 GOTO LOOP
                      00690 
                      00691 ; Selecciona CH0   
Warning[203]: Found opcode in column 1. (BCF)
000428 94C2           00692 BCF ADCON0,CHS0,0
Warning[203]: Found opcode in column 1. (CALL)
00042A EC?? F???      00693 CALL COUNT_CHANGE_CHANNEL
Warning[203]: Found opcode in column 1. (CALL)
00042E EC?? F???      00694 CALL WAIT_GO_ADC
MPASM 5.86             NEWPIC_8B_GENERAL.ASM   2-27-2023  17:45:21         PAGE 15


LOC  OBJECT CODE     LINE SOURCE TEXT
  VALUE

                      00695 
                      00696 ;Agafa el output (en ADRESH)
                      00697 ;Per utilitzar 7 passos OUTPUT --> ADRESH rang (numero de valors) 
                      00698                         ;H (N) --> [0,38]      (39)
                      00699                         ;M (N) --> [39,77]     (39)
                      00700                         ;L (N) --> [78, 116]   (39)
                      00701                         ;0 --> [117,138]       (22)
                      00702                         ;L (P) --> [139, 177]  (39)
                      00703                         ;M (P) --> [178,216]   (39)
                      00704                         ;H (P) --> [217,255]   (39)
                      00705 ; Divideix en 2 parts per utilitzar el bit Negative de STATUS 
                      00706 ; Sense sobrepassar el limit CA2
Warning[203]: Found opcode in column 1. (MOVLW)
000432 0E8B           00707 MOVLW .139
Warning[203]: Found opcode in column 1. (SUBWF)
000434 5CC4           00708 SUBWF ADRESH,0,0
Warning[203]: Found opcode in column 1. (BTFSC)
000436 B8D8           00709 BTFSC STATUS,N,0
Warning[203]: Found opcode in column 1. (GOTO)
000438 EF?? F???      00710 GOTO CHECK_LOW_VEL
Warning[203]: Found opcode in column 1. (GOTO)
00043C EF?? F???      00711 GOTO CHECK_HIGH_VEL
                      00712 
                      00713 ; Assigna les velocitats negatives i el 0
000440                00714 CHECK_LOW_VEL
000440 0E27           00715   MOVLW .39
000442 5CC4           00716   SUBWF ADRESH,0,0
000444 B8D8           00717   BTFSC STATUS,N,0
000446 EF?? F???      00718   GOTO VEL_N_HIGH
00044A 0E4E           00719   MOVLW .78
00044C 5CC4           00720   SUBWF ADRESH,0,0
00044E B8D8           00721   BTFSC STATUS,N,0
000450 EF?? F???      00722   GOTO VEL_N_MID
000454 0E75           00723   MOVLW .117
000456 5CC4           00724   SUBWF ADRESH,0,0
000458 B8D8           00725   BTFSC STATUS,N,0
00045A EF?? F???      00726   GOTO VEL_N_LOW
00045E EF?? F???      00727   GOTO VEL_0
                      00728 
                      00729 ; Assigna les velocitats positives
000462                00730 CHECK_HIGH_VEL
000462 0EB2           00731   MOVLW .178
000464 5CC4           00732   SUBWF ADRESH,0,0
000466 B8D8           00733   BTFSC STATUS,N,0
000468 EF?? F???      00734   GOTO VEL_P_LOW
00046C 0ED9           00735   MOVLW .217
00046E 5CC4           00736   SUBWF ADRESH,0,0
000470 B8D8           00737   BTFSC STATUS,N,0
000472 EF?? F???      00738   GOTO VEL_P_MID
000476 0EFF           00739   MOVLW .255
000478 5CC4           00740   SUBWF ADRESH,0,0
00047A B8D8           00741   BTFSC STATUS,N,0
00047C EF?? F???      00742   GOTO VEL_P_HIGH
MPASM 5.86             NEWPIC_8B_GENERAL.ASM   2-27-2023  17:45:21         PAGE 16


LOC  OBJECT CODE     LINE SOURCE TEXT
  VALUE

                      00743 
                      00744 ; Les següents funcions assignen la velocitat, i la posen als 7seg i encenen
                      00745 ; o apaguen el led de velocitat negatiu mentre no estigui l'alarma activada
                      00746 ; Assigna la velocitat (N) H
000480                00747 VEL_N_HIGH
000480 A004           00748   BTFSS IS_NEGATIVE,0
000482 EF?? F???      00749   GOTO VEL_P_HIGH
000486 0E01           00750   MOVLW .1
000488 5C06           00751   SUBWF VEL_ACTUAL,0
00048A B4D8           00752   BTFSC STATUS,Z,0
00048C EF?? F???      00753   GOTO LOOP
000490 0E01           00754   MOVLW .1
000492 6E06           00755   MOVWF VEL_ACTUAL
000494 EC?? F???      00756   CALL RESET_TICS_MIN
000498 C000 FF8C      00757   MOVFF CONST_7SEG_HIGH,LATD
00049C A00B           00758   BTFSS ALARM_EN,0
00049E 8689           00759   BSF LATA,3,0
0004A0 0E01           00760   MOVLW .1
0004A2 6E04           00761   MOVWF IS_NEGATIVE
0004A4 EF?? F???      00762   GOTO LOOP
                      00763 
                      00764 ; Assigna la velocitat (N) M 
0004A8                00765 VEL_N_MID
0004A8 0E02           00766   MOVLW .2
0004AA 5C06           00767   SUBWF VEL_ACTUAL,0
0004AC B4D8           00768   BTFSC STATUS,Z,0
0004AE EF?? F???      00769   GOTO LOOP
0004B2 0E02           00770   MOVLW .2
0004B4 6E06           00771   MOVWF VEL_ACTUAL
0004B6 EC?? F???      00772   CALL RESET_TICS_MIN
0004BA C001 FF8C      00773   MOVFF CONST_7SEG_MID,LATD
0004BE A00B           00774   BTFSS ALARM_EN,0
0004C0 8689           00775   BSF LATA,3,0
0004C2 0E01           00776   MOVLW .1
0004C4 6E04           00777   MOVWF IS_NEGATIVE
0004C6 EF?? F???      00778   GOTO LOOP
                      00779 
                      00780 ; Assigna la velocitat (N) L
0004CA                00781 VEL_N_LOW
0004CA 0E03           00782   MOVLW .3
0004CC 5C06           00783   SUBWF VEL_ACTUAL,0
0004CE B4D8           00784   BTFSC STATUS,Z,0
0004D0 EF?? F???      00785   GOTO LOOP
0004D4 0E03           00786   MOVLW .3
0004D6 6E06           00787   MOVWF VEL_ACTUAL
0004D8 EC?? F???      00788   CALL RESET_TICS_MIN
0004DC C002 FF8C      00789   MOVFF CONST_7SEG_LOW,LATD
0004E0 A00B           00790   BTFSS ALARM_EN,0
0004E2 8689           00791   BSF LATA,3,0
0004E4 0E01           00792   MOVLW .1
0004E6 6E04           00793   MOVWF IS_NEGATIVE
0004E8 EF?? F???      00794   GOTO LOOP
                      00795 
MPASM 5.86             NEWPIC_8B_GENERAL.ASM   2-27-2023  17:45:21         PAGE 17


LOC  OBJECT CODE     LINE SOURCE TEXT
  VALUE

                      00796 ; Assigna la velocitat 0
0004EC                00797 VEL_0
0004EC 0E04           00798   MOVLW .4
0004EE 5C06           00799   SUBWF VEL_ACTUAL,0
0004F0 B4D8           00800   BTFSC STATUS,Z,0
0004F2 EF?? F???      00801   GOTO LOOP
0004F6 0E04           00802   MOVLW .4
0004F8 6E06           00803   MOVWF VEL_ACTUAL
0004FA EC?? F???      00804   CALL RESET_TICS_MIN
0004FE C003 FF8C      00805   MOVFF CONST_7SEG_0,LATD
000502 A00B           00806   BTFSS ALARM_EN,0
000504 9689           00807   BCF LATA,3,0
000506 6A04           00808   CLRF IS_NEGATIVE
000508 EF?? F???      00809   GOTO LOOP
                      00810 
                      00811 ; Assigna la velocitat (P) L 
00050C                00812 VEL_P_LOW
00050C 0E05           00813   MOVLW .5
00050E 5C06           00814   SUBWF VEL_ACTUAL,0
000510 B4D8           00815   BTFSC STATUS,Z,0
000512 EF?? F???      00816   GOTO LOOP
000516 0E05           00817   MOVLW .5
000518 6E06           00818   MOVWF VEL_ACTUAL
00051A EC?? F???      00819   CALL RESET_TICS_MIN
00051E C002 FF8C      00820   MOVFF CONST_7SEG_LOW,LATD
000522 A00B           00821   BTFSS ALARM_EN,0
000524 9689           00822   BCF LATA,3,0
000526 6A04           00823   CLRF IS_NEGATIVE
000528 EF?? F???      00824   GOTO LOOP
                      00825 
                      00826 ; Assigna la velocitat (P) M
00052C                00827 VEL_P_MID
00052C 0E06           00828   MOVLW .6
00052E 5C06           00829   SUBWF VEL_ACTUAL,0
000530 B4D8           00830   BTFSC STATUS,Z,0
000532 EF?? F???      00831   GOTO LOOP
000536 0E06           00832   MOVLW .6
000538 6E06           00833   MOVWF VEL_ACTUAL
00053A EC?? F???      00834   CALL RESET_TICS_MIN
00053E C001 FF8C      00835   MOVFF CONST_7SEG_MID,LATD
000542 A00B           00836   BTFSS ALARM_EN,0
000544 9689           00837   BCF LATA,3,0
000546 6A04           00838   CLRF IS_NEGATIVE
000548 EF?? F???      00839   GOTO LOOP
                      00840 
                      00841 ; Assigna la velocitat (P) H
00054C                00842 VEL_P_HIGH
00054C 0E07           00843   MOVLW .7
00054E 5C06           00844   SUBWF VEL_ACTUAL,0
000550 B4D8           00845   BTFSC STATUS,Z,0
000552 EF?? F???      00846   GOTO LOOP
000556 0E07           00847   MOVLW .7
000558 6E06           00848   MOVWF VEL_ACTUAL
MPASM 5.86             NEWPIC_8B_GENERAL.ASM   2-27-2023  17:45:21         PAGE 18


LOC  OBJECT CODE     LINE SOURCE TEXT
  VALUE

00055A EC?? F???      00849   CALL RESET_TICS_MIN
00055E C000 FF8C      00850   MOVFF CONST_7SEG_HIGH,LATD
000562 A00B           00851   BTFSS ALARM_EN,0
000564 9689           00852   BCF LATA,3,0
000566 6A04           00853   CLRF IS_NEGATIVE
000568 EF?? F???      00854   GOTO LOOP
                      00855 
                      00856 ; Assigna la direccio actual
00056C                00857 TAKE_DIRECTION
                      00858   ; Selecciona CH1
00056C 84C2           00859   BSF ADCON0,CHS0,0     
00056E EC?? F???      00860   CALL COUNT_CHANGE_CHANNEL
000572 EC?? F???      00861   CALL WAIT_GO_ADC
                      00862   ;Agafa el output (en ADRESH)
                      00863   ;Per utilitzar 9 passos OUTPUT --> ADRESH rang (numero de valors) 
                      00864                         ;MAX (L) --> [0,10]     (11)
                      00865                         ;H (L) --> [11,46]      (36)
                      00866                         ;M (L) --> [47, 82]     (36)
                      00867                         ;L (L) --> [83,118]     (36)
                      00868                         ;S --> [119, 136]       (18)
                      00869                         ;L (R) --> [137,172]    (36)
                      00870                         ;M (R) --> [173,208]    (36)
                      00871                         ;H (R) --> [209,244]    (36)
                      00872                         ;MAX (R) --> [245,255]  (11)
                      00873   
                      00874   ; Divideix in 2 parts per utilitzar el bit Negative de STATUS 
                      00875   ; Sense sobrepassar el limit CA2
000576 0E89           00876   MOVLW .137
000578 5CC4           00877   SUBWF ADRESH,0,0
00057A B8D8           00878   BTFSC STATUS,N,0
00057C EF?? F???      00879   GOTO CHECK_LOW_DIR
000580 EF?? F???      00880   GOTO CHECK_HIGH_DIR
                      00881   
                      00882   ; Assigna les direccions de l'esquerra i el 0
Warning[207]: Found label after column 1. (CHECK_LOW_DIR)
000584                00883   CHECK_LOW_DIR                 
000584 0E0B           00884     MOVLW .11
000586 5CC4           00885     SUBWF ADRESH,0,0
000588 B8D8           00886     BTFSC STATUS,N,0
00058A EF?? F???      00887     GOTO DIR_L_MAX
00058E 0E2F           00888     MOVLW .47
000590 5CC4           00889     SUBWF ADRESH,0,0
000592 B8D8           00890     BTFSC STATUS,N,0
000594 EF?? F???      00891     GOTO DIR_L_HIGH
000598 0E53           00892     MOVLW .83
00059A 5CC4           00893     SUBWF ADRESH,0,0
00059C B8D8           00894     BTFSC STATUS,N,0
00059E EF?? F???      00895     GOTO DIR_L_MID
0005A2 0E77           00896     MOVLW .119
0005A4 5CC4           00897     SUBWF ADRESH,0,0
0005A6 B8D8           00898     BTFSC STATUS,N,0
0005A8 EF?? F???      00899     GOTO DIR_L_LOW
0005AC EF?? F???      00900     GOTO DIR_S
MPASM 5.86             NEWPIC_8B_GENERAL.ASM   2-27-2023  17:45:21         PAGE 19


LOC  OBJECT CODE     LINE SOURCE TEXT
  VALUE

                      00901   
                      00902   ; Assigna les direccions de la dreta
Warning[207]: Found label after column 1. (CHECK_HIGH_DIR)
0005B0                00903   CHECK_HIGH_DIR
0005B0 0EAD           00904     MOVLW .173  
0005B2 5CC4           00905     SUBWF ADRESH,0,0
0005B4 B8D8           00906     BTFSC STATUS,N,0
0005B6 EF?? F???      00907     GOTO DIR_R_LOW
0005BA 0ED1           00908     MOVLW .209
0005BC 5CC4           00909     SUBWF ADRESH,0,0
0005BE B8D8           00910     BTFSC STATUS,N,0
0005C0 EF?? F???      00911     GOTO DIR_R_MID
0005C4 0EF5           00912     MOVLW .245
0005C6 5CC4           00913     SUBWF ADRESH,0,0
0005C8 B8D8           00914     BTFSC STATUS,N,0
0005CA EF?? F???      00915     GOTO DIR_R_HIGH
0005CE 0EFF           00916     MOVLW .255
0005D0 5CC4           00917     SUBWF ADRESH,0,0
0005D2 B8D8           00918     BTFSC STATUS,N,0
0005D4 EF?? F???      00919     GOTO DIR_R_MAX
0005D8 EF?? F???      00920     GOTO DIR_L_MAX
                      00921   
Warning[207]: Found label after column 1. (GO_BACK)
0005DC                00922   GO_BACK
0005DC 0012           00923   RETURN
                      00924   
                      00925 ; Les següents funcions assignen la direccio, i la posen a la barra de leds,
                      00926 ; a mes de mesurar el PWM que haura de tenir el servo
                      00927 ; Assigna la direccio (L) MAX
0005DE                00928 DIR_L_MAX
0005DE A014           00929   BTFSS IS_LEFT,0
0005E0 EF?? F???      00930   GOTO DIR_R_MAX
0005E4 0E01           00931   MOVLW .1
0005E6 5C13           00932   SUBWF DIR_ACTUAL,0
0005E8 B4D8           00933   BTFSC STATUS,Z,0
0005EA EF?? F???      00934   GOTO GO_BACK
0005EE 0E01           00935   MOVLW .1
0005F0 6E13           00936   MOVWF DIR_ACTUAL
0005F2 EC?? F???      00937   CALL RESET_TICS_MIN
                      00938   ; Encenem el valor corresponent a la barra de leds
0005F6 EC?? F???      00939   CALL CLEAN_LED_BAR
0005FA 808B           00940   BSF LATC,0,0
0005FC 0E01           00941   MOVLW .1
0005FE 6E14           00942   MOVWF IS_LEFT
000600 EF?? F???      00943   GOTO GO_BACK
                      00944  
                      00945 ; Assigna la direccio (L) HIGH
000604                00946 DIR_L_HIGH
000604 A014           00947   BTFSS IS_LEFT,0
000606 EF?? F???      00948   GOTO DIR_R_MAX
00060A 0E02           00949   MOVLW .2
00060C 5C13           00950   SUBWF DIR_ACTUAL,0
00060E B4D8           00951   BTFSC STATUS,Z,0
MPASM 5.86             NEWPIC_8B_GENERAL.ASM   2-27-2023  17:45:21         PAGE 20


LOC  OBJECT CODE     LINE SOURCE TEXT
  VALUE

000610 EF?? F???      00952   GOTO GO_BACK
000614 0E02           00953   MOVLW .2
000616 6E13           00954   MOVWF DIR_ACTUAL
000618 EC?? F???      00955   CALL RESET_TICS_MIN
                      00956   ; Encenem el valor corresponent a la barra de leds
00061C EC?? F???      00957   CALL CLEAN_LED_BAR
000620 828B           00958   BSF LATC,1,0
000622 0E01           00959   MOVLW .1
000624 6E14           00960   MOVWF IS_LEFT
000626 EF?? F???      00961   GOTO GO_BACK
                      00962   
                      00963 ; Assigna la direccio (L) MID
00062A                00964 DIR_L_MID
00062A 0E03           00965   MOVLW .3
00062C 5C13           00966   SUBWF DIR_ACTUAL,0
00062E B4D8           00967   BTFSC STATUS,Z,0
000630 EF?? F???      00968   GOTO GO_BACK
000634 0E03           00969   MOVLW .3
000636 6E13           00970   MOVWF DIR_ACTUAL
000638 EC?? F???      00971   CALL RESET_TICS_MIN
                      00972   ; Encenem el valor corresponent a la barra de leds
00063C EC?? F???      00973   CALL CLEAN_LED_BAR
000640 848B           00974   BSF LATC,2,0
000642 0E01           00975   MOVLW .1
000644 6E14           00976   MOVWF IS_LEFT
000646 EF?? F???      00977   GOTO GO_BACK
                      00978   
                      00979 ; Assigna la direccio (L) LOW
00064A                00980 DIR_L_LOW
00064A 0E04           00981   MOVLW .4
00064C 5C13           00982   SUBWF DIR_ACTUAL,0
00064E B4D8           00983   BTFSC STATUS,Z,0
000650 EF?? F???      00984   GOTO GO_BACK
000654 0E04           00985   MOVLW .4
000656 6E13           00986   MOVWF DIR_ACTUAL
000658 EC?? F???      00987   CALL RESET_TICS_MIN
                      00988   ; Encenem el valor corresponent a la barra de leds
00065C EC?? F???      00989   CALL CLEAN_LED_BAR
000660 868B           00990   BSF LATC,3,0
000662 0E01           00991   MOVLW .1
000664 6E14           00992   MOVWF IS_LEFT
000666 EF?? F???      00993   GOTO GO_BACK
                      00994   
                      00995 ; Assigna la direccio Straight (Recte)
00066A                00996 DIR_S
00066A 0E05           00997   MOVLW .5
00066C 5C13           00998   SUBWF DIR_ACTUAL,0
00066E B4D8           00999   BTFSC STATUS,Z,0
000670 EF?? F???      01000   GOTO GO_BACK
000674 0E05           01001   MOVLW .5
000676 6E13           01002   MOVWF DIR_ACTUAL
000678 EC?? F???      01003   CALL RESET_TICS_MIN
                      01004   ; Encenem el valor corresponent a la barra de leds
MPASM 5.86             NEWPIC_8B_GENERAL.ASM   2-27-2023  17:45:21         PAGE 21


LOC  OBJECT CODE     LINE SOURCE TEXT
  VALUE

00067C EC?? F???      01005   CALL CLEAN_LED_BAR
000680 888B           01006   BSF LATC,4,0
000682 8A8B           01007   BSF LATC,5,0
000684 6A14           01008   CLRF IS_LEFT
000686 EF?? F???      01009   GOTO GO_BACK
                      01010   
                      01011 ; Assigna la direccio (R) LOW
00068A                01012 DIR_R_LOW
00068A 0E06           01013   MOVLW .6
00068C 5C13           01014   SUBWF DIR_ACTUAL,0
00068E B4D8           01015   BTFSC STATUS,Z,0
000690 EF?? F???      01016   GOTO GO_BACK
000694 0E06           01017   MOVLW .6
000696 6E13           01018   MOVWF DIR_ACTUAL
000698 EC?? F???      01019   CALL RESET_TICS_MIN
                      01020   ; Encenem el valor corresponent a la barra de leds
00069C EC?? F???      01021   CALL CLEAN_LED_BAR
0006A0 8C8B           01022   BSF LATC,6,0
0006A2 6A14           01023   CLRF IS_LEFT
0006A4 EF?? F???      01024   GOTO GO_BACK
                      01025   
                      01026 ; Assigna la direccio (R) MID
0006A8                01027 DIR_R_MID
0006A8 0E07           01028   MOVLW .7
0006AA 5C13           01029   SUBWF DIR_ACTUAL,0
0006AC B4D8           01030   BTFSC STATUS,Z,0
0006AE EF?? F???      01031   GOTO GO_BACK
0006B2 0E07           01032   MOVLW .7
0006B4 6E13           01033   MOVWF DIR_ACTUAL
0006B6 EC?? F???      01034   CALL RESET_TICS_MIN
                      01035   ; Encenem el valor corresponent a la barra de leds
0006BA EC?? F???      01036   CALL CLEAN_LED_BAR
0006BE 8E8B           01037   BSF LATC,7,0
0006C0 6A14           01038   CLRF IS_LEFT
0006C2 EF?? F???      01039   GOTO GO_BACK
                      01040   
                      01041 ; Assigna la direccio (R) HIGH
0006C6                01042 DIR_R_HIGH
0006C6 0E08           01043   MOVLW .8
0006C8 5C13           01044   SUBWF DIR_ACTUAL,0
0006CA B4D8           01045   BTFSC STATUS,Z,0
0006CC EF?? F???      01046   GOTO GO_BACK
0006D0 0E08           01047   MOVLW .8
0006D2 6E13           01048   MOVWF DIR_ACTUAL
0006D4 EC?? F???      01049   CALL RESET_TICS_MIN
                      01050   ; Encenem el valor corresponent a la barra de leds
0006D8 EC?? F???      01051   CALL CLEAN_LED_BAR
0006DC 868A           01052   BSF LATB,3,0
0006DE 6A14           01053   CLRF IS_LEFT
0006E0 EF?? F???      01054   GOTO GO_BACK
                      01055   
                      01056 ; Assigna la direccio (R) MAX
0006E4                01057 DIR_R_MAX
MPASM 5.86             NEWPIC_8B_GENERAL.ASM   2-27-2023  17:45:21         PAGE 22


LOC  OBJECT CODE     LINE SOURCE TEXT
  VALUE

0006E4 0E09           01058   MOVLW .9
0006E6 5C13           01059   SUBWF DIR_ACTUAL,0
0006E8 B4D8           01060   BTFSC STATUS,Z,0
0006EA EF?? F???      01061   GOTO GO_BACK
0006EE 0E09           01062   MOVLW .9
0006F0 6E13           01063   MOVWF DIR_ACTUAL
0006F2 EC?? F???      01064   CALL RESET_TICS_MIN
                      01065   ; Encenem el valor corresponent a la barra de leds
0006F6 EC?? F???      01066   CALL CLEAN_LED_BAR
0006FA 888A           01067   BSF LATB,4,0
0006FC 6A14           01068   CLRF IS_LEFT
0006FE EF?? F???      01069   GOTO GO_BACK
                      01070 
                      01071   
                      01072 ; Treu l'output de ADC quan hagi acabat de fer la transformacio 
000702                01073 WAIT_GO_ADC
                      01074   ;Preparat per agafar l'output
000702 82C2           01075   BSF ADCON0,GO_NOT_DONE,0
                      01076   ;Procesessa l'output
Warning[207]: Found label after column 1. (WAIT_ADC)
000704                01077   WAIT_ADC
000704 B2C2           01078     BTFSC ADCON0,GO_NOT_DONE,0
000706 EF?? F???      01079     GOTO WAIT_ADC
00070A 0012           01080   RETURN
                      01081   
                      01082 ; Reprodueix una ruta guardada
00070C                01083 REPRODUIR_RUTA
00070C 0E00           01084   MOVLW .0
00070E 5C1A           01085   SUBWF ContSaves,0
000710 B4D8           01086   BTFSC STATUS,Z,0
000712 EF?? F???      01087   GOTO FINAL_RUTA
                      01088   
                      01089   ; Començem a reproduir
000716 CFEE F006      01090   MOVFF POSTINC0,VEL_ACTUAL
00071A CFEE F013      01091   MOVFF POSTINC0,DIR_ACTUAL
00071E CFEE F01D      01092   MOVFF POSTINC0,TIME_DELAY_L
000722 CFEE F01E      01093   MOVFF POSTINC0,TIME_DELAY_H
                      01094   ; Cridem a les funcions de direccio i velocitat
000726 EC?? F???      01095   CALL ASSIGNA_VEL
00072A EC?? F???      01096   CALL ASSIGNA_DIR
00072E EC?? F???      01097   CALL RESET_TICS_DELAY
000732 681C           01098   SETF DELAY_ESPERA_EN
                      01099   ; Ens esperem a que el timer indiqui que ha passat el temps de delay
Warning[207]: Found label after column 1. (ESPERA_DELAY)
000734                01100   ESPERA_DELAY
000734 B01C           01101     BTFSC DELAY_ESPERA_EN,0
000736 EF?? F???      01102     GOTO ESPERA_DELAY
                      01103     
00073A 061A           01104   DECF ContSaves,1
00073C EF?? F???      01105   GOTO REPRODUIR_RUTA
                      01106   
Warning[207]: Found label after column 1. (FINAL_RUTA)
000740                01107   FINAL_RUTA
MPASM 5.86             NEWPIC_8B_GENERAL.ASM   2-27-2023  17:45:21         PAGE 23


LOC  OBJECT CODE     LINE SOURCE TEXT
  VALUE

000740 6A1B           01108   CLRF AUTOP_MODE
000742 EC?? F???      01109   CALL RGB_GREEN
000746 6805           01110   SETF MANUAL_MODE
000748 EC?? F???      01111   CALL RESET_TICS_MIN
00074C EF?? F???      01112   GOTO LOOP
                      01113   
                      01114 ; Assigna la velocitat que li correspon al 7Seg pel AUTOP_MODE
000750                01115 ASSIGNA_VEL
000750 0E01           01116   MOVLW .1
000752 5C06           01117   SUBWF VEL_ACTUAL,0
000754 B4D8           01118   BTFSC STATUS,Z,0
000756 EC?? F???      01119   CALL POSA_VEL_N_H
00075A 0E02           01120   MOVLW .2
00075C 5C06           01121   SUBWF VEL_ACTUAL,0
00075E B4D8           01122   BTFSC STATUS,Z,0
000760 EC?? F???      01123   CALL POSA_VEL_N_M
000764 0E03           01124   MOVLW .3
000766 5C06           01125   SUBWF VEL_ACTUAL,0
000768 B4D8           01126   BTFSC STATUS,Z,0
00076A EC?? F???      01127   CALL POSA_VEL_N_L
00076E 0E04           01128   MOVLW .4
000770 5C06           01129   SUBWF VEL_ACTUAL,0
000772 B4D8           01130   BTFSC STATUS,Z,0
000774 EC?? F???      01131   CALL POSA_VEL_0 
000778 0E05           01132   MOVLW .5
00077A 5C06           01133   SUBWF VEL_ACTUAL,0
00077C B4D8           01134   BTFSC STATUS,Z,0
00077E EC?? F???      01135   CALL POSA_VEL_P_L
000782 0E06           01136   MOVLW .6
000784 5C06           01137   SUBWF VEL_ACTUAL,0
000786 B4D8           01138   BTFSC STATUS,Z,0
000788 EC?? F???      01139   CALL POSA_VEL_P_M
00078C 0E07           01140   MOVLW .7
00078E 5C06           01141   SUBWF VEL_ACTUAL,0
000790 B4D8           01142   BTFSC STATUS,Z,0
000792 EC?? F???      01143   CALL POSA_VEL_P_H
000796 0012           01144   RETURN
                      01145   
                      01146 ; Assigna la velocitat High Negative
000798                01147 POSA_VEL_N_H
000798 C000 FF8C      01148   MOVFF CONST_7SEG_HIGH,LATD
00079C 8689           01149   BSF LATA,3,0
00079E 6804           01150   SETF IS_NEGATIVE
0007A0 0012           01151   RETURN
                      01152   
                      01153 ; Assigna la velocitat Mid Negative
0007A2                01154 POSA_VEL_N_M
0007A2 C001 FF8C      01155   MOVFF CONST_7SEG_MID,LATD
0007A6 8689           01156   BSF LATA,3,0
0007A8 6804           01157   SETF IS_NEGATIVE
0007AA 0012           01158   RETURN
                      01159    
                      01160 ; Assigna la velocitat Low Negative
MPASM 5.86             NEWPIC_8B_GENERAL.ASM   2-27-2023  17:45:21         PAGE 24


LOC  OBJECT CODE     LINE SOURCE TEXT
  VALUE

0007AC                01161 POSA_VEL_N_L
0007AC C002 FF8C      01162   MOVFF CONST_7SEG_LOW,LATD
0007B0 8689           01163   BSF LATA,3,0
0007B2 6804           01164   SETF IS_NEGATIVE
0007B4 0012           01165   RETURN
                      01166   
                      01167 ; Assigna la velocitat 0
0007B6                01168 POSA_VEL_0
0007B6 C003 FF8C      01169   MOVFF CONST_7SEG_0,LATD
0007BA 9689           01170   BCF LATA,3,0
0007BC 6A04           01171   CLRF IS_NEGATIVE
0007BE 0012           01172   RETURN
                      01173   
                      01174 ; Assigna la velocitat Low Positive
0007C0                01175 POSA_VEL_P_L
0007C0 C002 FF8C      01176   MOVFF CONST_7SEG_LOW,LATD
0007C4 9689           01177   BCF LATA,3,0
0007C6 6A04           01178   CLRF IS_NEGATIVE
0007C8 0012           01179   RETURN
                      01180   
                      01181 ; Assigna la velocitat Mid Positive
0007CA                01182 POSA_VEL_P_M
0007CA C001 FF8C      01183   MOVFF CONST_7SEG_MID,LATD
0007CE 9689           01184   BCF LATA,3,0
0007D0 6A04           01185   CLRF IS_NEGATIVE
0007D2 0012           01186   RETURN
                      01187   
                      01188 ; Assigna la velocitat High Positive
0007D4                01189 POSA_VEL_P_H
0007D4 C000 FF8C      01190   MOVFF CONST_7SEG_HIGH,LATD
0007D8 9689           01191   BCF LATA,3,0
0007DA 6A04           01192   CLRF IS_NEGATIVE
0007DC 0012           01193   RETURN
                      01194   
                      01195 ; Assigna la direccio que li correspon a la barra de leds pel AUTOP_MODE
0007DE                01196 ASSIGNA_DIR
                      01197   ; Netejem els leds
0007DE EC?? F???      01198   CALL CLEAN_LED_BAR
0007E2 0E01           01199   MOVLW .1
0007E4 5C13           01200   SUBWF DIR_ACTUAL,0
0007E6 B4D8           01201   BTFSC STATUS,Z,0
0007E8 808B           01202   BSF LATC,0,0
0007EA 0E02           01203   MOVLW .2
0007EC 5C13           01204   SUBWF DIR_ACTUAL,0
0007EE B4D8           01205   BTFSC STATUS,Z,0
0007F0 828B           01206   BSF LATC,1,0
0007F2 0E03           01207   MOVLW .3
0007F4 5C13           01208   SUBWF DIR_ACTUAL,0
0007F6 B4D8           01209   BTFSC STATUS,Z,0
0007F8 848B           01210   BSF LATC,2,0
0007FA 0E04           01211   MOVLW .4
0007FC 5C13           01212   SUBWF DIR_ACTUAL,0
0007FE B4D8           01213   BTFSC STATUS,Z,0
MPASM 5.86             NEWPIC_8B_GENERAL.ASM   2-27-2023  17:45:21         PAGE 25


LOC  OBJECT CODE     LINE SOURCE TEXT
  VALUE

000800 868B           01214   BSF LATC,3,0
000802 0E05           01215   MOVLW .5
000804 5C13           01216   SUBWF DIR_ACTUAL,0
000806 B4D8           01217   BTFSC STATUS,Z,0
000808 EC?? F???      01218   CALL POSA_DIR_0
00080C 0E06           01219   MOVLW .6
00080E 5C13           01220   SUBWF DIR_ACTUAL,0
000810 B4D8           01221   BTFSC STATUS,Z,0
000812 8C8B           01222   BSF LATC,6,0
000814 0E07           01223   MOVLW .7
000816 5C13           01224   SUBWF DIR_ACTUAL,0
000818 B4D8           01225   BTFSC STATUS,Z,0
00081A 8E8B           01226   BSF LATC,7,0
00081C 0E08           01227   MOVLW .8
00081E 5C13           01228   SUBWF DIR_ACTUAL,0
000820 B4D8           01229   BTFSC STATUS,Z,0
000822 868A           01230   BSF LATB,3,0
000824 0E09           01231   MOVLW .9
000826 5C13           01232   SUBWF DIR_ACTUAL,0
000828 B4D8           01233   BTFSC STATUS,Z,0
00082A 888A           01234   BSF LATB,4,0
00082C 0012           01235   RETURN
                      01236   
                      01237 ; Assigna la direccio 0
00082E                01238 POSA_DIR_0
00082E 888B           01239   BSF LATC,4,0
000830 8A8B           01240   BSF LATC,5,0
000832 0012           01241   RETURN
                      01242   
                      01243 ; Color del led RGB vermell pel mode record
000834                01244 RGB_RED
000834 808D           01245   BSF LATE,0,0
000836 928D           01246   BCF LATE,1,0
000838 948D           01247   BCF LATE,2,0
00083A 0012           01248   RETURN
                      01249   
                      01250 ; Color del led RGB verd pel mode manual
00083C                01251 RGB_GREEN
00083C 908D           01252   BCF LATE,0,0
00083E 828D           01253   BSF LATE,1,0
000840 948D           01254   BCF LATE,2,0
000842 0012           01255   RETURN
                      01256 
                      01257 ; Color del led RGB blau pel mode creuer
000844                01258 RGB_BLUE
000844 908D           01259   BCF LATE,0,0
000846 928D           01260   BCF LATE,1,0
000848 848D           01261   BSF LATE,2,0
00084A 0012           01262   RETURN
                      01263   
                      01264 ; Color del led RGB blanc pel mode pilot automatic
00084C                01265 RGB_WHITE
00084C 808D           01266   BSF LATE,0,0
MPASM 5.86             NEWPIC_8B_GENERAL.ASM   2-27-2023  17:45:21         PAGE 26


LOC  OBJECT CODE     LINE SOURCE TEXT
  VALUE

00084E 828D           01267   BSF LATE,1,0
000850 848D           01268   BSF LATE,2,0
000852 0012           01269   RETURN
                      01270   
                      01271 ; Neteja amb 0's la barra de leds
000854                01272 CLEAN_LED_BAR
000854 6A8B           01273   CLRF LATC,0
000856 968A           01274   BCF LATB,3,0
000858 988A           01275   BCF LATB,4,0
00085A 0012           01276   RETURN
                      01277 ;--------------------------------------
                      01278 ; COMPTATGES D'INSTRUCCIONS
                      01279 ;--------------------------------------
                      01280 ; Compta 20ms corresponents al temps de rebots dels polsadors 
                      01281 ; TTarget = 20ms | Tinst = 250ns --> #inst = 80.000 - 4 = 79996
                      01282 ; 4 + (4*X + 6)*Y = 79996 --> X = 255 | Y = 78
00085C                01283 COUNT_20ms
00085C 0E01           01284   MOVLW .1 ;x = 256 - 255 = 1
00085E 6E07           01285   MOVWF ContInstL
000860 0EB2           01286   MOVLW .178 ;y = 256 - 78 = 178
000862 6E08           01287   MOVWF ContInstH
Warning[207]: Found label after column 1. (T_REBOTS)
000864                01288   T_REBOTS
000864 2A07           01289     INCF ContInstL,1
000866 A0D8           01290     BTFSS STATUS,C,0
000868 EF?? F???      01291     GOTO T_REBOTS
00086C 0E01           01292     MOVLW .1
00086E 6E07           01293     MOVWF ContInstL
000870 2A08           01294     INCF ContInstH,1
000872 A0D8           01295     BTFSS STATUS,C,0
000874 EF?? F???      01296     GOTO T_REBOTS
000878 0012           01297   RETURN
                      01298   
                      01299 ; Compta 222us corresponents a 1 pas dels 9 que hi ha per mesurar la direccio 
                      01300 ; TTarget = 222us | Tinst = 250ns --> #inst = 888 - 4 = 884
                      01301 ; 2 + 4*X = 884 --> 2 NOP's i X = 220
00087A                01302 COUNT_PAS_SERVO
00087A 0E24           01303   MOVLW .36 ;x = 256 - 220 = 36
00087C 6E16           01304   MOVWF ContPWML
00087E 0000           01305   NOP
000880 0000           01306   NOP
Warning[207]: Found label after column 1. (T_PAS)
000882                01307   T_PAS
000882 2A16           01308     INCF ContPWML,1
000884 A0D8           01309     BTFSS STATUS,C,0
000886 EF?? F???      01310     GOTO T_PAS  
00088A 0012           01311   RETURN
                      01312   
                      01313 ; Compta 0,5ms corresponents a l'estat inicial del servo a 0 graus
                      01314 ; TTarget = 500us | Tinst = 250ns --> #inst = 2000 - 4 = 1996
                      01315 ; 4 + (4*X + 6)*Y = 1996 --> X = 256 | Y = 2
00088C                01316 POS_INICIAL_SERVO
00088C 0E00           01317   MOVLW .0 ;x = 256 - 256 = 0
MPASM 5.86             NEWPIC_8B_GENERAL.ASM   2-27-2023  17:45:21         PAGE 27


LOC  OBJECT CODE     LINE SOURCE TEXT
  VALUE

00088E 6E16           01318   MOVWF ContPWML
000890 0EFE           01319   MOVLW .254 ;y = 256 - 2 = 254
000892 6E17           01320   MOVWF ContPWMH
Warning[207]: Found label after column 1. (T_INICIAL)
000894                01321   T_INICIAL
000894 2A16           01322     INCF ContPWML,1
000896 A0D8           01323     BTFSS STATUS,C,0
000898 EF?? F???      01324     GOTO T_INICIAL
00089C 0E00           01325     MOVLW .0
00089E 6E16           01326     MOVWF ContPWML
0008A0 2A17           01327     INCF ContPWMH,1
0008A2 A0D8           01328     BTFSS STATUS,C,0
0008A4 EF?? F???      01329     GOTO T_INICIAL
0008A8 0012           01330   RETURN
                      01331 
                      01332 ; Compta 100us corresponents al canvi de canal analogic pel joystick
                      01333 ; TTarget = 50us | Tinst = 250ns --> #inst = 200 - 4 = 196
                      01334 ; 2 + 4*X = 196 --> 2 NOP's i X = 48
0008AA                01335 COUNT_CHANGE_CHANNEL
0008AA 0ED0           01336   MOVLW .208 ;x = 256 - 48 = 208
0008AC 6E07           01337   MOVWF ContInstL
0008AE 0000           01338   NOP
0008B0 0000           01339   NOP
Warning[207]: Found label after column 1. (T_CH)
0008B2                01340   T_CH
0008B2 2A07           01341     INCF ContInstL,1
0008B4 A0D8           01342     BTFSS STATUS,C,0
0008B6 EF?? F???      01343     GOTO T_CH  
0008BA 0012           01344   RETURN
                      01345         
Warning[205]: Found directive in column 1. (END)
                      01346 END
MPASM 5.86             NEWPIC_8B_GENERAL.ASM   2-27-2023  17:45:21         PAGE 28


SYMBOL TABLE
  LABEL                             VALUE 

A                                 00000000
ABDEN                             00000000
ABDOVF                            00000007
ACCESS                            00000000
ACKDT                             00000005
ACKEN                             00000004
ACKSTAT                           00000006
ACQT0                             00000003
ACQT1                             00000004
ACQT2                             00000005
ACTIVA_PORT_DC                    00000130
ACTIVA_RB6                        0000013E
ACTIVA_RB7                        00000144
ADCON0                            00000FC2
ADCON1                            00000FC1
ADCON2                            00000FC0
ADCS0                             00000000
ADCS1                             00000001
ADCS2                             00000002
ADDEN                             00000003
ADEN                              00000003
ADFM                              00000007
ADIE                              00000006
ADIF                              00000006
ADIP                              00000006
ADMSK1                            00000001
ADMSK2                            00000002
ADMSK3                            00000003
ADMSK4                            00000004
ADMSK5                            00000005
ADON                              00000000
ADRES                             00000FC3
ADRESH                            00000FC4
ADRESL                            00000FC3
ALARM_EN                          0000000B
AN0                               00000000
AN1                               00000001
AN10                              00000001
AN11                              00000004
AN12                              00000000
AN2                               00000002
AN3                               00000003
AN4                               00000005
AN5                               00000000
AN6                               00000001
AN7                               00000002
AN8                               00000002
AN9                               00000003
ASSIGNA_DIR                       000007DE
ASSIGNA_VEL                       00000750
ASSIGN_PWM_VEL                    000000C2
AUTOP_EN                          0000000E
AUTOP_MODE                        0000001B
MPASM 5.86             NEWPIC_8B_GENERAL.ASM   2-27-2023  17:45:21         PAGE 29


SYMBOL TABLE
  LABEL                             VALUE 

BANKED                            00000001
BAUDCON                           00000FB8
BAUDCTL                           00000FB8
BCLIE                             00000003
BCLIF                             00000003
BCLIP                             00000003
BF                                00000000
BGST                              00000005
BOR                               00000000
BRG16                             00000003
BRGH                              00000002
BSR                               00000FE0
C                                 00000000
C1INV                             00000004
C1N                               00000000
C1OUT_CMCON                       00000006
C1OUT_PORTA                       00000004
C1P                               00000003
C2INV                             00000005
C2N                               00000001
C2OUT_CMCON                       00000007
C2OUT_PORTA                       00000005
C2P                               00000002
CCP1                              00000002
CCP1CON                           00000FBD
CCP1IE                            00000002
CCP1IF                            00000002
CCP1IP                            00000002
CCP1M0                            00000000
CCP1M1                            00000001
CCP1M2                            00000002
CCP1M3                            00000003
CCP1X                             00000005
CCP1Y                             00000004
CCP2CON                           00000FBA
CCP2IE                            00000000
CCP2IF                            00000000
CCP2IP                            00000000
CCP2M0                            00000000
CCP2M1                            00000001
CCP2M2                            00000002
CCP2M3                            00000003
CCP2X                             00000005
CCP2Y                             00000004
CCP2_PORTB                        00000003
CCP2_PORTC                        00000001
CCPR1                             00000FBE
CCPR1H                            00000FBF
CCPR1L                            00000FBE
CCPR2                             00000FBB
CCPR2H                            00000FBC
CCPR2L                            00000FBB
CFGS                              00000006
MPASM 5.86             NEWPIC_8B_GENERAL.ASM   2-27-2023  17:45:21         PAGE 30


SYMBOL TABLE
  LABEL                             VALUE 

CHANGE_MANUAL_MODE                00000248
CHANGE_RECORDING_MODE             0000029E
CHANGE_TO_CRUISE                  0000023E
CHANGE_TO_MANUAL                  00000234
CHANGE_TO_NO_RECORD               00000288
CHANGE_TO_RECORD                  00000270
CHECK_20ms                        00000180
CHECK_HIGH_DIR                    000005B0
CHECK_HIGH_VEL                    00000462
CHECK_LOW_DIR                     00000584
CHECK_LOW_VEL                     00000440
CHECK_PWM_DC                      000000B0
CHECK_TICS_DELAY_AUTO             0000006E
CHECK_TICS_DELAY_REC              00000088
CHECK_TICS_MIN                    000001B6
CHECK_TICS_SEG                    000001FC
CHS0                              00000002
CHS1                              00000003
CHS2                              00000004
CHS3                              00000005
CIS                               00000003
CK                                00000006
CKE                               00000006
CKP                               00000004
CLEAN_LED_BAR                     00000854
CLKI                              00000007
CLKO                              00000006
CM0                               00000000
CM1                               00000001
CM2                               00000002
CMCON                             00000FB4
CMIE                              00000006
CMIF                              00000006
CMIP                              00000006
CONST_7SEG_0                      00000003
CONST_7SEG_HIGH                   00000000
CONST_7SEG_LOW                    00000002
CONST_7SEG_MID                    00000001
CONTINUE_VEL                      000000B4
COUNT_20ms                        0000085C
COUNT_CHANGE_CHANNEL              000008AA
COUNT_PAS_SERVO                   0000087A
CREN                              00000004
CS                                00000002
CSRC                              00000007
CVR0                              00000000
CVR1                              00000001
CVR2                              00000002
CVR3                              00000003
CVRCON                            00000FB5
CVREF                             00000002
CVREN                             00000007
CVROE                             00000006
MPASM 5.86             NEWPIC_8B_GENERAL.ASM   2-27-2023  17:45:21         PAGE 31


SYMBOL TABLE
  LABEL                             VALUE 

CVRR                              00000005
CVRSS                             00000004
ContInstH                         00000008
ContInstL                         00000007
ContPWMH                          00000017
ContPWML                          00000016
ContSaves                         0000001A
ContTHigh                         00000015
D                                 00000005
DC                                00000001
DC1B0                             00000004
DC1B1                             00000005
DC2B0                             00000004
DC2B1                             00000005
DC_IS_SET                         00000021
DDRA                              TRISA
DDRB                              TRISB
DDRC                              TRISC
DDRD                              TRISD
DDRE                              TRISE
DELAY_ESPERA_EN                   0000001C
DESACTIVA_PORT_DC                 0000014A
DIR_ACTUAL                        00000013
DIR_L_HIGH                        00000604
DIR_L_LOW                         0000064A
DIR_L_MAX                         000005DE
DIR_L_MID                         0000062A
DIR_R_HIGH                        000006C6
DIR_R_LOW                         0000068A
DIR_R_MAX                         000006E4
DIR_R_MID                         000006A8
DIR_S                             0000066A
DONE                              00000001
D_A                               00000005
D_NOT_A                           00000005
ECCP1AS                           00000FB6
ECCP1CON                          00000FBD
ECCP1DEL                          00000FB7
ECCPAS0                           00000004
ECCPAS1                           00000005
ECCPAS2                           00000006
ECCPASE                           00000007
EEADR                             00000FA9
EECON1                            00000FA6
EECON2                            00000FA7
EEDATA                            00000FA8
EEIE                              00000004
EEIF                              00000004
EEIP                              00000004
EEPGD                             00000007
END_PASSOS                        000001B0
ESPERA_DELAY                      00000734
ESPERA_FI_P0                      00000260
MPASM 5.86             NEWPIC_8B_GENERAL.ASM   2-27-2023  17:45:21         PAGE 32


SYMBOL TABLE
  LABEL                             VALUE 

ESPERA_FI_P1                      000002B2
ESPERA_FI_P2                      00000314
FAST                              00000001
FERR                              00000002
FINAL_P1                          000002CE
FINAL_RUTA                        00000740
FLT0                              00000000
FLTS                              00000002
FREE                              00000004
FSR0                              00000000
FSR0H                             00000FEA
FSR0L                             00000FE9
FSR1                              00000001
FSR1H                             00000FE2
FSR1L                             00000FE1
FSR2                              00000002
FSR2H                             00000FDA
FSR2L                             00000FD9
GCEN                              00000007
GIE                               00000007
GIEH                              00000007
GIEL                              00000006
GIE_GIEH                          00000007
GO                                00000001
GO_BACK                           000005DC
GO_BACK_DC                        000000C0
GO_DONE                           00000001
GO_NOT_DONE                       00000001
HIGH_RSI                          00000040
HLVDCON                           00000FD2
HLVDEN                            00000004
HLVDIE                            00000002
HLVDIF                            00000002
HLVDIN                            00000005
HLVDIP                            00000002
HLVDL0                            00000000
HLVDL1                            00000001
HLVDL2                            00000002
HLVDL3                            00000003
IBF                               00000007
IBOV                              00000005
IDLEN                             00000007
INDF0                             00000FEF
INDF1                             00000FE7
INDF2                             00000FDF
INITIAL_POSITION_RAM              00000340
INIT_ADC                          000003D2
INIT_IRQS                         000003DE
INIT_OSC                          0000035A
INIT_PORTS                        00000362
INIT_TMR                          000003E6
INIT_VARS                         00000386
INT0                              00000000
MPASM 5.86             NEWPIC_8B_GENERAL.ASM   2-27-2023  17:45:21         PAGE 33


SYMBOL TABLE
  LABEL                             VALUE 

INT0E                             00000004
INT0F                             00000001
INT0IE                            00000004
INT0IF                            00000001
INT1                              00000001
INT1E                             00000003
INT1F                             00000000
INT1IE                            00000003
INT1IF                            00000000
INT1IP                            00000006
INT1P                             00000006
INT2                              00000002
INT2E                             00000004
INT2F                             00000001
INT2IE                            00000004
INT2IF                            00000001
INT2IP                            00000007
INT2P                             00000007
INTCON                            00000FF2
INTCON2                           00000FF1
INTCON3                           00000FF0
INTEDG0                           00000006
INTEDG1                           00000005
INTEDG2                           00000004
INTSRC                            00000007
IOFS                              00000002
IPEN                              00000007
IPR1                              00000F9F
IPR2                              00000FA2
IRCF0                             00000004
IRCF1                             00000005
IRCF2                             00000006
IRVST                             00000005
IS_LEFT                           00000014
IS_NEGATIVE                       00000004
KBI0                              00000004
KBI1                              00000005
KBI2                              00000006
KBI3                              00000007
LATA                              00000F89
LATA0                             00000000
LATA1                             00000001
LATA2                             00000002
LATA3                             00000003
LATA4                             00000004
LATA5                             00000005
LATA6                             00000006
LATA7                             00000007
LATB                              00000F8A
LATB0                             00000000
LATB1                             00000001
LATB2                             00000002
LATB3                             00000003
MPASM 5.86             NEWPIC_8B_GENERAL.ASM   2-27-2023  17:45:21         PAGE 34


SYMBOL TABLE
  LABEL                             VALUE 

LATB4                             00000004
LATB5                             00000005
LATB6                             00000006
LATB7                             00000007
LATC                              00000F8B
LATC0                             00000000
LATC1                             00000001
LATC2                             00000002
LATC3                             00000003
LATC4                             00000004
LATC5                             00000005
LATC6                             00000006
LATC7                             00000007
LATD                              00000F8C
LATD0                             00000000
LATD1                             00000001
LATD2                             00000002
LATD3                             00000003
LATD4                             00000004
LATD5                             00000005
LATD6                             00000006
LATD7                             00000007
LATE                              00000F8D
LATE0                             00000000
LATE1                             00000001
LATE2                             00000002
LOAD_TMR                          0000001A
LOOP                              00000406
LVDCON                            00000FD2
LVDEN                             00000004
LVDIE                             00000002
LVDIF                             00000002
LVDIP                             00000002
LVDL0                             00000000
LVDL1                             00000001
LVDL2                             00000002
LVDL3                             00000003
LVV0                              00000000
LVV1                              00000001
LVV2                              00000002
LVV3                              00000003
MAIN                              000003EE
MANUAL_MODE                       00000005
MCLR                              00000003
MINUTE_PASSED                     000001DE
N                                 00000004
NETEJA                            0000034E
NETEJA_RAM                        00000348
NEW_SERVO_PWM                     0000018E
NOT_A                             00000005
NOT_ADDRESS                       00000005
NOT_BOR                           00000000
NOT_CS                            00000002
MPASM 5.86             NEWPIC_8B_GENERAL.ASM   2-27-2023  17:45:21         PAGE 35


SYMBOL TABLE
  LABEL                             VALUE 

NOT_DONE                          00000001
NOT_MCLR                          00000003
NOT_PD                            00000002
NOT_POR                           00000001
NOT_RBPU                          00000007
NOT_RD                            00000000
NOT_RI                            00000004
NOT_SS                            00000005
NOT_T1SYNC                        00000002
NOT_T3SYNC                        00000002
NOT_TO                            00000003
NOT_W                             00000002
NOT_WR                            00000001
NOT_WRITE                         00000002
OBF                               00000006
OERR                              00000001
OSC1                              00000007
OSC2                              00000006
OSCCON                            00000FD3
OSCFIE                            00000007
OSCFIF                            00000007
OSCFIP                            00000007
OSCTUNE                           00000F9B
OSTS                              00000003
OV                                00000003
P                                 00000004
P1A                               00000002
P1B                               00000005
P1C                               00000006
P1D                               00000007
P1M0                              00000006
P1M1                              00000007
PC                                00000FF9
PCFG0                             00000000
PCFG1                             00000001
PCFG2                             00000002
PCFG3                             00000003
PCL                               00000FF9
PCLATH                            00000FFA
PCLATU                            00000FFB
PD                                00000002
PDC0                              00000000
PDC1                              00000001
PDC2                              00000002
PDC3                              00000003
PDC4                              00000004
PDC5                              00000005
PDC6                              00000006
PEIE                              00000006
PEIE_GIEL                         00000006
PEN                               00000002
PGC                               00000006
PGD                               00000007
MPASM 5.86             NEWPIC_8B_GENERAL.ASM   2-27-2023  17:45:21         PAGE 36


SYMBOL TABLE
  LABEL                             VALUE 

PGM                               00000005
PIE1                              00000F9D
PIE2                              00000FA0
PIR1                              00000F9E
PIR2                              00000FA1
PLLEN                             00000006
PLUSW0                            00000FEB
PLUSW1                            00000FE3
PLUSW2                            00000FDB
POR                               00000001
PORTA                             00000F80
PORTB                             00000F81
PORTC                             00000F82
PORTD                             00000F83
PORTE                             00000F84
POSA_DIR_0                        0000082E
POSA_VEL_0                        000007B6
POSA_VEL_N_H                      00000798
POSA_VEL_N_L                      000007AC
POSA_VEL_N_M                      000007A2
POSA_VEL_P_H                      000007D4
POSA_VEL_P_L                      000007C0
POSA_VEL_P_M                      000007CA
POSTDEC0                          00000FED
POSTDEC1                          00000FE5
POSTDEC2                          00000FDD
POSTINC0                          00000FEE
POSTINC1                          00000FE6
POSTINC2                          00000FDE
POS_INICIAL_SERVO                 0000088C
PR2                               00000FCB
PREINC0                           00000FEC
PREINC1                           00000FE4
PREINC2                           00000FDC
PROD                              00000FF3
PRODH                             00000FF4
PRODL                             00000FF3
PRSEN                             00000007
PSA                               00000003
PSP0                              00000000
PSP1                              00000001
PSP2                              00000002
PSP3                              00000003
PSP4                              00000004
PSP5                              00000005
PSP6                              00000006
PSP7                              00000007
PSPIE                             00000007
PSPIF                             00000007
PSPIP                             00000007
PSPMODE                           00000004
PSSAC0                            00000002
PSSAC1                            00000003
MPASM 5.86             NEWPIC_8B_GENERAL.ASM   2-27-2023  17:45:21         PAGE 37


SYMBOL TABLE
  LABEL                             VALUE 

PSSBD0                            00000000
PSSBD1                            00000001
PWM1CON                           00000FB7
PWM_VEL_0                         00000128
PWM_VEL_H                         00000120
PWM_VEL_L                         00000108
PWM_VEL_M                         00000114
R                                 00000002
RA0                               00000000
RA1                               00000001
RA2                               00000002
RA3                               00000003
RA4                               00000004
RA5                               00000005
RA6                               00000006
RA7                               00000007
RB0                               00000000
RB1                               00000001
RB2                               00000002
RB3                               00000003
RB4                               00000004
RB5                               00000005
RB6                               00000006
RB7                               00000007
RBIE                              00000003
RBIF                              00000000
RBIP                              00000000
RBPU                              00000007
RC0                               00000000
RC1                               00000001
RC2                               00000002
RC3                               00000003
RC4                               00000004
RC5                               00000005
RC6                               00000006
RC7                               00000007
RCEN                              00000003
RCIDL                             00000006
RCIE                              00000005
RCIF                              00000005
RCIP                              00000005
RCMT                              00000006
RCON                              00000FD0
RCREG                             00000FAE
RCSTA                             00000FAB
RD                                00000000
RD0                               00000000
RD1                               00000001
RD16                              00000007
RD2                               00000002
RD3                               00000003
RD4                               00000004
RD5                               00000005
MPASM 5.86             NEWPIC_8B_GENERAL.ASM   2-27-2023  17:45:21         PAGE 38


SYMBOL TABLE
  LABEL                             VALUE 

RD6                               00000006
RD7                               00000007
RE0                               00000000
RE1                               00000001
RE2                               00000002
RE3                               00000003
RECORD_MODE                       00000011
REPRODUIR_RUTA                    0000070C
RESET_TICS_ALARM                  0000003A
RESET_TICS_DELAY                  0000002C
RESET_TICS_MIN                    00000024
RESET_TICS_SEG                    00000032
REVISA_AUTOP                      000002D0
RGB_BLUE                          00000844
RGB_GREEN                         0000083C
RGB_RED                           00000834
RGB_WHITE                         0000084C
RI                                00000004
RSEN                              00000001
RX                                00000007
RX9                               00000006
RX9D                              00000000
RXDTP                             00000005
R_NOT_W                           00000002
R_W                               00000002
S                                 00000003
SAVES_30                          0000032A
SAVE_PARAMS                       000002E4
SBOREN                            00000006
SCK                               00000003
SCKP                              00000004
SCL                               00000003
SCS0                              00000000
SCS1                              00000001
SDA                               00000004
SDI                               00000004
SDO                               00000005
SEN                               00000000
SENDB                             00000003
SMP                               00000007
SP0                               00000000
SP1                               00000001
SP2                               00000002
SP3                               00000003
SP4                               00000004
SPBRG                             00000FAF
SPBRGH                            00000FB0
SPEN                              00000007
SREN                              00000005
SSPADD                            00000FC8
SSPBUF                            00000FC9
SSPCON1                           00000FC6
SSPCON2                           00000FC5
MPASM 5.86             NEWPIC_8B_GENERAL.ASM   2-27-2023  17:45:21         PAGE 39


SYMBOL TABLE
  LABEL                             VALUE 

SSPEN                             00000005
SSPIE                             00000003
SSPIF                             00000003
SSPIP                             00000003
SSPM0                             00000000
SSPM1                             00000001
SSPM2                             00000002
SSPM3                             00000003
SSPOV                             00000006
SSPSTAT                           00000FC7
STATUS                            00000FD8
STKFUL                            00000007
STKOVF                            00000007
STKPTR                            00000FFC
STKUNF                            00000006
SWDTE                             00000000
SWDTEN                            00000000
SYNC                              00000004
T016BIT                           00000006
T08BIT                            00000006
T0CKI                             00000004
T0CON                             00000FD5
T0CS                              00000005
T0IE                              00000005
T0IF                              00000002
T0PS0                             00000000
T0PS1                             00000001
T0PS2                             00000002
T0SE                              00000004
T13CKI                            00000000
T1CKI                             00000000
T1CKPS0                           00000004
T1CKPS1                           00000005
T1CON                             00000FCD
T1OSCEN                           00000003
T1OSI                             00000001
T1OSO                             00000000
T1RUN                             00000006
T1SYNC                            00000002
T2CKPS0                           00000000
T2CKPS1                           00000001
T2CON                             00000FCA
T2OUTPS0                          00000003
T2OUTPS1                          00000004
T2OUTPS2                          00000005
T2OUTPS3                          00000006
T3CCP1                            00000003
T3CCP2                            00000006
T3CKPS0                           00000004
T3CKPS1                           00000005
T3CON                             00000FB1
T3SYNC                            00000002
TABLAT                            00000FF5
MPASM 5.86             NEWPIC_8B_GENERAL.ASM   2-27-2023  17:45:21         PAGE 40


SYMBOL TABLE
  LABEL                             VALUE 

TAKE_DIRECTION                    0000056C
TBLPTR                            00000FF6
TBLPTRH                           00000FF7
TBLPTRL                           00000FF6
TBLPTRU                           00000FF8
TEMPS_DC_HIGH                     0000016A
TEMPS_DC_LOW                      00000154
TIME_DELAY_H                      0000001E
TIME_DELAY_L                      0000001D
TIME_SAVE                         00000320
TMR0                              00000FD6
TMR0H                             00000FD7
TMR0IE                            00000005
TMR0IF                            00000002
TMR0IP                            00000002
TMR0L                             00000FD6
TMR0ON                            00000007
TMR1                              00000FCE
TMR1CS                            00000001
TMR1H                             00000FCF
TMR1IE                            00000000
TMR1IF                            00000000
TMR1IP                            00000000
TMR1L                             00000FCE
TMR1ON                            00000000
TMR2                              00000FCC
TMR2IE                            00000001
TMR2IF                            00000001
TMR2IP                            00000001
TMR2ON                            00000002
TMR3                              00000FB2
TMR3CS                            00000001
TMR3H                             00000FB3
TMR3IE                            00000001
TMR3IF                            00000001
TMR3IP                            00000001
TMR3L                             00000FB2
TMR3ON                            00000000
TO                                00000003
TOS                               00000FFD
TOSH                              00000FFE
TOSL                              00000FFD
TOSU                              00000FFF
TOUTPS0                           00000003
TOUTPS1                           00000004
TOUTPS2                           00000005
TOUTPS3                           00000006
TRISA                             00000F92
TRISA0                            00000000
TRISA1                            00000001
TRISA2                            00000002
TRISA3                            00000003
TRISA4                            00000004
MPASM 5.86             NEWPIC_8B_GENERAL.ASM   2-27-2023  17:45:21         PAGE 41


SYMBOL TABLE
  LABEL                             VALUE 

TRISA5                            00000005
TRISA6                            00000006
TRISA7                            00000007
TRISB                             00000F93
TRISB0                            00000000
TRISB1                            00000001
TRISB2                            00000002
TRISB3                            00000003
TRISB4                            00000004
TRISB5                            00000005
TRISB6                            00000006
TRISB7                            00000007
TRISC                             00000F94
TRISC0                            00000000
TRISC1                            00000001
TRISC2                            00000002
TRISC3                            00000003
TRISC4                            00000004
TRISC5                            00000005
TRISC6                            00000006
TRISC7                            00000007
TRISD                             00000F95
TRISD0                            00000000
TRISD1                            00000001
TRISD2                            00000002
TRISD3                            00000003
TRISD4                            00000004
TRISD5                            00000005
TRISD6                            00000006
TRISD7                            00000007
TRISE                             00000F96
TRISE0                            00000000
TRISE1                            00000001
TRISE2                            00000002
TRMT                              00000001
TUN0                              00000000
TUN1                              00000001
TUN2                              00000002
TUN3                              00000003
TUN4                              00000004
TX                                00000006
TX9                               00000006
TX9D                              00000000
TXCKP                             00000004
TXEN                              00000005
TXIE                              00000004
TXIF                              00000004
TXIP                              00000004
TXREG                             00000FAD
TXSTA                             00000FAC
T_CH                              000008B2
T_HIGH_DC                         0000001F
T_INICIAL                         00000894
MPASM 5.86             NEWPIC_8B_GENERAL.ASM   2-27-2023  17:45:21         PAGE 42


SYMBOL TABLE
  LABEL                             VALUE 

T_LOW_DC                          00000020
T_PAS                             00000882
T_PASSOS                          000001A4
T_REBOTS                          00000864
Tics20                            00000012
TicsAlarmH                        0000000D
TicsAlarmL                        0000000C
TicsDC                            00000022
TicsDelayH                        00000019
TicsDelayL                        00000018
TicsMinH                          00000009
TicsMinL                          0000000A
TicsSegH                          00000010
TicsSegL                          0000000F
UA                                00000001
UPDATE_SPEED                      00000226
VCFG0                             00000004
VCFG1                             00000005
VDIRMAG                           00000007
VEL_0                             000004EC
VEL_ACTUAL                        00000006
VEL_N_HIGH                        00000480
VEL_N_LOW                         000004CA
VEL_N_MID                         000004A8
VEL_P_HIGH                        0000054C
VEL_P_LOW                         0000050C
VEL_P_MID                         0000052C
VPP                               00000003
VREFM                             00000002
VREFP                             00000003
W                                 00000000
WAIT_ADC                          00000704
WAIT_GO_ADC                       00000702
WCOL                              00000007
WDTCON                            00000FD1
WR                                00000001
WREG                              00000FE8
WREN                              00000002
WRERR                             00000003
WUE                               00000001
Z                                 00000002
_BBSIZ_BB1K_4L                    000000FF
_BBSIZ_BB256_4L                   000000CF
_BBSIZ_BB512_4L                   000000DF
_BORV_0_2L                        000000E7
_BORV_1_2L                        000000EF
_BORV_2_2L                        000000F7
_BORV_3_2L                        000000FF
_BOR_NOSLP_2L                     000000FD
_BOR_OFF_2L                       000000F9
_BOR_ON_2L                        000000FF
_BOR_SOFT_2L                      000000FB
_CCP2MX_RB3_3H                    000000FE
MPASM 5.86             NEWPIC_8B_GENERAL.ASM   2-27-2023  17:45:21         PAGE 43


SYMBOL TABLE
  LABEL                             VALUE 

_CCP2MX_RC1_3H                    000000FF
_CONFIG1H                         00300001
_CONFIG2H                         00300003
_CONFIG2L                         00300002
_CONFIG3H                         00300005
_CONFIG4L                         00300006
_CONFIG5H                         00300009
_CONFIG5L                         00300008
_CONFIG6H                         0030000B
_CONFIG6L                         0030000A
_CONFIG7H                         0030000D
_CONFIG7L                         0030000C
_CP0_OFF_5L                       000000FF
_CP0_ON_5L                        000000FE
_CP1_OFF_5L                       000000FF
_CP1_ON_5L                        000000FD
_CPB_OFF_5H                       000000FF
_CPB_ON_5H                        000000BF
_CPD_OFF_5H                       000000FF
_CPD_ON_5H                        0000007F
_DEBUG_OFF_4L                     000000FF
_DEBUG_ON_4L                      0000007F
_DEVID1                           003FFFFE
_DEVID2                           003FFFFF
_EBTR0_OFF_7L                     000000FF
_EBTR0_ON_7L                      000000FE
_EBTR1_OFF_7L                     000000FF
_EBTR1_ON_7L                      000000FD
_EBTRB_OFF_7H                     000000FF
_EBTRB_ON_7H                      000000BF
_FCMEN_OFF_1H                     000000BF
_FCMEN_ON_1H                      000000FF
_IDLOC0                           00200000
_IDLOC1                           00200001
_IDLOC2                           00200002
_IDLOC3                           00200003
_IDLOC4                           00200004
_IDLOC5                           00200005
_IDLOC6                           00200006
_IDLOC7                           00200007
_IESO_OFF_1H                      0000007F
_IESO_ON_1H                       000000FF
_LPT1OSC_OFF_3H                   000000FB
_LPT1OSC_ON_3H                    000000FF
_LVP_OFF_4L                       000000FB
_LVP_ON_4L                        000000FF
_MCLRE_OFF_3H                     0000007F
_MCLRE_ON_3H                      000000FF
_OSC_ECIO_1H                      000000F5
_OSC_EC_1H                        000000F4
_OSC_HSPLL_1H                     000000F6
_OSC_HS_1H                        000000F2
_OSC_INTIO1_1H                    000000F9
MPASM 5.86             NEWPIC_8B_GENERAL.ASM   2-27-2023  17:45:21         PAGE 44


SYMBOL TABLE
  LABEL                             VALUE 

_OSC_INTIO2_1H                    000000F8
_OSC_LP_1H                        000000F0
_OSC_RCIO_1H                      000000F7
_OSC_RC_1H                        000000F3
_OSC_XT_1H                        000000F1
_PBADEN_ANA_3H                    000000FF
_PBADEN_DIG_3H                    000000FD
_PWRT_OFF_2L                      000000FF
_PWRT_ON_2L                       000000FE
_STVREN_OFF_4L                    000000FE
_STVREN_ON_4L                     000000FF
_WDTPS_1024_2H                    000000F5
_WDTPS_128_2H                     000000EF
_WDTPS_16384_2H                   000000FD
_WDTPS_16_2H                      000000E9
_WDTPS_1_2H                       000000E1
_WDTPS_2048_2H                    000000F7
_WDTPS_256_2H                     000000F1
_WDTPS_2_2H                       000000E3
_WDTPS_32768_2H                   000000FF
_WDTPS_32_2H                      000000EB
_WDTPS_4096_2H                    000000F9
_WDTPS_4_2H                       000000E5
_WDTPS_512_2H                     000000F3
_WDTPS_64_2H                      000000ED
_WDTPS_8192_2H                    000000FB
_WDTPS_8_2H                       000000E7
_WDT_OFF_2H                       000000FE
_WDT_ON_2H                        000000FF
_WRT0_OFF_6L                      000000FF
_WRT0_ON_6L                       000000FE
_WRT1_OFF_6L                      000000FF
_WRT1_ON_6L                       000000FD
_WRTB_OFF_6H                      000000FF
_WRTB_ON_6H                       000000BF
_WRTC_OFF_6H                      000000FF
_WRTC_ON_6H                       000000DF
_WRTD_OFF_6H                      000000FF
_WRTD_ON_6H                       0000007F
_XINST_OFF_4L                     000000BF
_XINST_ON_4L                      000000FF
__18F4321                         00000001

Errors   :     0
Warnings :    54 reported,     0 suppressed
Messages :     0 reported,     0 suppressed

