MPASM 5.86             NEWPIC_8B_GENERAL.ASM   2-16-2023  13:15:58         PAGE  1


LOC  OBJECT CODE     LINE SOURCE TEXT
  VALUE

Warning[205]: Found directive in column 1. (LIST)
Warning[215]: Processor superseded by command line.  Verify processor symbol.
                      00001 LIST P=PIC18F4321 F=INHX32
                      00002 #include <p18f4321.inc>
                      00001         LIST
                      00002 
                      00003 ;==========================================================================
                      00004 ; Build date : Oct 24 2019
                      00005 ;  MPASM PIC18F4321 processor include
                      00006 ; 
                      00007 ;  (c) Copyright 1999-2019 Microchip Technology, All rights reserved
                      00008 ;==========================================================================
                      00009 
                      01455         LIST
                      00003     
Warning[205]: Found directive in column 1. (CONFIG)
                      00004 CONFIG OSC=INTIO2
Warning[205]: Found directive in column 1. (CONFIG)
                      00005 CONFIG PBADEN=DIG
Warning[205]: Found directive in column 1. (CONFIG)
                      00006 CONFIG WDT=OFF
                      00007 
                      00008 ;--------------------------------------
                      00009 ; DEFINIM VARIABLES
                      00010 ;--------------------------------------
                      00011 ; Constants per guardar el valor de velocitat en 7Segments
  00000000            00012 CONST_7SEG_HIGH  EQU  0x00
  00000001            00013 CONST_7SEG_MID   EQU  0x01
  00000002            00014 CONST_7SEG_LOW   EQU  0x02
  00000003            00015 CONST_7SEG_0     EQU  0x03
                      00016 ; Flag per saber si la velocitat és negativa (=1) o positiva (=0)
  00000004            00017 IS_NEGATIVE      EQU  0x04
                      00018 ; Flag per saber si estem a mode manual (=1) o creuer (=0)
  00000005            00019 MANUAL_MODE      EQU  0x05
                      00020 ; Codi vel: 1 --> High Negative
                      00021            ;2 --> Mid Negative
                      00022            ;3 --> Low Negative
                      00023            ;4 --> 0
                      00024            ;5 --> Low Positive
                      00025            ;6 --> Mid Positive
                      00026            ;7 --> High Positive 
  00000006            00027 VEL_ACTUAL       EQU  0x06
                      00028 ; Comptador per filtrar rebots
  00000007            00029 ContRebotsL      EQU  0x07
  00000008            00030 ContRebotsH      EQU  0x08 
                      00031 ; Comptador per comptar 1 minut (per inactivitat)
  00000009            00032 TicsMinH         EQU  0x09
  00000010            00033 TicsMinL         EQU  0x10
                      00034 ; Flag per saber si l'alarma està activa (=1) o no (=0)
  00000011            00035 ALARM_EN         EQU  0x11
                      00036 ; Comptador per comptar mig segon (pampallugues de l'alarma)
  00000012            00037 TicsAlarmL       EQU  0x12
  00000013            00038 TicsAlarmH       EQU  0x13
MPASM 5.86             NEWPIC_8B_GENERAL.ASM   2-16-2023  13:15:58         PAGE  2


LOC  OBJECT CODE     LINE SOURCE TEXT
  VALUE

                      00039 ; Flag per habilitar el comptatge de temps del polsador RecordMode 
                      00040 ; de 1 segon (=1) o deshabilitar-lo (=0)
  00000014            00041 AUTOP_EN         EQU  0x14
                      00042 ; Comptador per comptar 1 segon (pel polsador recording)
  00000015            00043 TicsSegL         EQU  0x15
  00000016            00044 TicsSegH         EQU  0x16
                      00045 ; Flag per saber si estem en mode recording (=1) o no ho estem (=0)
  00000017            00046 RECORD_MODE      EQU  0x17
                      00047 
Warning[205]: Found directive in column 1. (ORG)
                      00048 ORG 0x0000
Warning[203]: Found opcode in column 1. (GOTO)
000000 EF?? F???      00049 GOTO MAIN
Warning[205]: Found directive in column 1. (ORG)
                      00050 ORG 0x0008
Warning[203]: Found opcode in column 1. (GOTO)
000008 EF?? F???      00051 GOTO HIGH_RSI
Warning[205]: Found directive in column 1. (ORG)
                      00052 ORG 0x0018
Warning[203]: Found opcode in column 1. (RETFIE)
000018 0011           00053 RETFIE FAST
                      00054 
                      00055 ;--------------------------------------
                      00056 ; FUNCIONS PEL TIMER
                      00057 ;--------------------------------------
                      00058 ; Recarrega el valor del timer per una interrupció cada 1ms
00001A                00059 LOAD_TMR
00001A 0EF0           00060   MOVLW HIGH(.61536)
00001C 6ED7           00061   MOVWF TMR0H,0
00001E 0E60           00062   MOVLW LOW(.61536)
000020 6ED6           00063   MOVWF TMR0L,0  
000022 0012           00064   RETURN
                      00065 
                      00066 ; Reseteja el comptador de 1min   
000024                00067 RESET_TICS_MIN
000024 6A11           00068   CLRF ALARM_EN
000026 6A09           00069   CLRF TicsMinH
000028 6A10           00070   CLRF TicsMinL
00002A 0012           00071   RETURN
                      00072 
                      00073 ; Reseteja el comptador de 1seg   
00002C                00074 RESET_TICS_SEG
00002C 2A14           00075   INCF AUTOP_EN,1
00002E 6A16           00076   CLRF TicsSegH
000030 6A15           00077   CLRF TicsSegL
000032 0012           00078   RETURN
                      00079   
                      00080 ; Reseteja el comptador de 0,5seg   
000034                00081 RESET_TICS_ALARM
000034 6A13           00082   CLRF TicsAlarmH
000036 6A12           00083   CLRF TicsAlarmL
000038 0012           00084   RETURN
                      00085 
MPASM 5.86             NEWPIC_8B_GENERAL.ASM   2-16-2023  13:15:58         PAGE  3


LOC  OBJECT CODE     LINE SOURCE TEXT
  VALUE

                      00086 ; Gestiona totes les interrupcions (nomes tenim de timer)
00003A                00087 HIGH_RSI
00003A A4F2           00088   BTFSS INTCON,TMR0IF,0
00003C 0011           00089   RETFIE FAST
00003E 94F2           00090   BCF INTCON,TMR0IF,0
000040 EC?? F???      00091   CALL LOAD_TMR
000044 B014           00092   BTFSC AUTOP_EN,0
000046 EC?? F???      00093   CALL CHECK_TICS_SEG
00004A A011           00094   BTFSS ALARM_EN,0
00004C EF?? F???      00095   GOTO CHECK_TICS_MIN
000050 EF?? F???      00096   GOTO MINUTE_PASSED
                      00097 
                      00098 ; Comprova si ha passat 1 minut d'inactivitat (60000ms = 1min)
000054                00099 CHECK_TICS_MIN
000054 2A10           00100   INCF TicsMinL,1
000056 B0D8           00101   BTFSC STATUS,C,0
000058 2A09           00102   INCF TicsMinH,1
00005A 0EEA           00103   MOVLW HIGH(.60000)
00005C 5C09           00104   SUBWF TicsMinH,0
00005E A4D8           00105   BTFSS STATUS,Z,0
000060 0011           00106   RETFIE FAST
000062 0E60           00107   MOVLW LOW(.60000)
000064 5C10           00108   SUBWF TicsMinL,0
000066 A4D8           00109   BTFSS STATUS,Z,0
000068 0011           00110   RETFIE FAST
                      00111 ; Aqui ha passat 1min
Warning[203]: Found opcode in column 1. (MOVLW)
00006A 0E01           00112 MOVLW .1
Warning[203]: Found opcode in column 1. (MOVWF)
00006C 6E11           00113 MOVWF ALARM_EN
Warning[203]: Found opcode in column 1. (BSF)
00006E 8689           00114 BSF LATA,3,0
Warning[203]: Found opcode in column 1. (CALL)
000070 EC?? F???      00115 CALL RESET_TICS_ALARM
                      00116 
                      00117 ; Activa l'alarma fent pampallugues canviant cada 0,5seg el led (500ms = 0,5seg)
000074                00118 MINUTE_PASSED
000074 2A12           00119   INCF TicsAlarmL,1
000076 B0D8           00120   BTFSC STATUS,C,0
000078 2A13           00121   INCF TicsAlarmH,1
00007A 0E01           00122   MOVLW HIGH(.500)
00007C 5C13           00123   SUBWF TicsAlarmH,0
00007E A4D8           00124   BTFSS STATUS,Z,0
000080 0011           00125   RETFIE FAST
000082 0EF4           00126   MOVLW LOW(.500)
000084 5C12           00127   SUBWF TicsAlarmL,0
000086 A4D8           00128   BTFSS STATUS,Z,0
000088 0011           00129   RETFIE FAST
00008A 7689           00130   BTG LATA,3,0
00008C EC?? F???      00131   CALL RESET_TICS_ALARM
000090 0011           00132   RETFIE FAST
                      00133 
                      00134 ; Comprova si el polsador Record ha passat 1 segon polsat
MPASM 5.86             NEWPIC_8B_GENERAL.ASM   2-16-2023  13:15:58         PAGE  4


LOC  OBJECT CODE     LINE SOURCE TEXT
  VALUE

000092                00135 CHECK_TICS_SEG
000092 2A15           00136   INCF TicsSegL,1
000094 B0D8           00137   BTFSC STATUS,C,0
000096 2A16           00138   INCF TicsSegH,1
000098 0E03           00139   MOVLW HIGH(.1000)
00009A 5C16           00140   SUBWF TicsSegH,0
00009C A4D8           00141   BTFSS STATUS,Z,0
00009E 0012           00142   RETURN
0000A0 0EE8           00143   MOVLW LOW(.1000)
0000A2 5C15           00144   SUBWF TicsSegL,0
0000A4 A4D8           00145   BTFSS STATUS,Z,0
0000A6 0012           00146   RETURN
                      00147   ; Ha passat 1 segon per tant canviem al mode pilot automatic
0000A8 A005           00148   BTFSS MANUAL_MODE,0
0000AA 0012           00149   RETURN
0000AC 6A17           00150   CLRF RECORD_MODE
0000AE 7889           00151   BTG LATA,4,0 ;TODO: DEBUGGING
0000B0 0012           00152   RETURN
                      00153     
                      00154 ;--------------------------------------
                      00155 ; FUNCIONS PELS POLSADORS (per polling)
                      00156 ;--------------------------------------
                      00157 ; Actualitza el led de velocitat negativa
0000B2                00158 UPDATE_SPEED
0000B2 0E04           00159   MOVLW .4
0000B4 5C06           00160   SUBWF VEL_ACTUAL,0
0000B6 A8D8           00161   BTFSS STATUS,N,0
0000B8 9689           00162   BCF LATA,3,0
0000BA B8D8           00163   BTFSC STATUS,N,0
0000BC 8689           00164   BSF LATA,3,0
0000BE 0012           00165   RETURN
                      00166 
                      00167 ; Canvia el mode a manual
0000C0                00168 CHANGE_TO_MANUAL
0000C0 6805           00169   SETF MANUAL_MODE
0000C2 EF?? F???      00170   GOTO ESPERA_FI_P0
                      00171 
                      00172 ; Canvia el mode a creuer
0000C6                00173 CHANGE_TO_CRUISE
0000C6 6A05           00174   CLRF MANUAL_MODE
0000C8 EF?? F???      00175   GOTO ESPERA_FI_P0  
                      00176 
                      00177 ; Canvia el mode del polsador manual pel corresponent (filtrant rebots)
0000CC                00178 CHANGE_MANUAL_MODE
0000CC EC?? F???      00179   CALL COUNT_20ms
0000D0 EC?? F???      00180   CALL RESET_TICS_MIN
0000D4 A005           00181   BTFSS MANUAL_MODE,0
0000D6 EF?? F???      00182   GOTO CHANGE_TO_MANUAL
0000DA EF?? F???      00183   GOTO CHANGE_TO_CRUISE
Warning[207]: Found label after column 1. (ESPERA_FI_P0)
0000DE                00184   ESPERA_FI_P0
0000DE A081           00185     BTFSS PORTB,0,0
0000E0 EF?? F???      00186     GOTO ESPERA_FI_P0
MPASM 5.86             NEWPIC_8B_GENERAL.ASM   2-16-2023  13:15:58         PAGE  5


LOC  OBJECT CODE     LINE SOURCE TEXT
  VALUE

0000E4 EC?? F???      00187   CALL COUNT_20ms
0000E8 EC?? F???      00188   CALL UPDATE_SPEED
0000EC 0012           00189   RETURN
                      00190 
                      00191 ; Canvia el mode a gravacio
0000EE                00192 CHANGE_TO_RECORD
0000EE 6817           00193   SETF RECORD_MODE
0000F0 EF?? F???      00194   GOTO ESPERA_FI_P1
                      00195 
                      00196 ; Canvia el mode a no gravacio
0000F4                00197 CHANGE_TO_NO_RECORD
0000F4 6A17           00198   CLRF RECORD_MODE
0000F6 EF?? F???      00199   GOTO ESPERA_FI_P1
                      00200   
                      00201 ; Activa i desactiva el mode de gravacio i pilot automatic (filtrant rebots)
0000FA                00202 CHANGE_RECORDING_MODE
0000FA EC?? F???      00203   CALL COUNT_20ms
0000FE EC?? F???      00204   CALL RESET_TICS_MIN
000102 EC?? F???      00205   CALL RESET_TICS_SEG
000106 A017           00206   BTFSS RECORD_MODE,0
000108 EF?? F???      00207   GOTO CHANGE_TO_RECORD
00010C EF?? F???      00208   GOTO CHANGE_TO_NO_RECORD
Warning[207]: Found label after column 1. (ESPERA_FI_P1)
000110                00209   ESPERA_FI_P1
000110 A281           00210     BTFSS PORTB,1,0
000112 EF?? F???      00211     GOTO ESPERA_FI_P1
000116 EC?? F???      00212   CALL COUNT_20ms
00011A 6A14           00213   CLRF AUTOP_EN
00011C EC?? F???      00214   CALL UPDATE_SPEED
000120 0012           00215   RETURN
                      00216  
                      00217 ;--------------------------------------
                      00218 ; FUNCIONS DE CONFIGURACIONS INICIALS
                      00219 ;--------------------------------------
                      00220 ; Config OSC per tenir F=16MHz
000122                00221 INIT_OSC
000122 0E60           00222   MOVLW b'01100000'
000124 6ED3           00223   MOVWF OSCCON,0
000126 8C9B           00224   BSF OSCTUNE,PLLEN,0
000128 0012           00225   RETURN
                      00226 
                      00227 ; Inicialitza ports a utilitzar
00012A                00228 INIT_PORTS
00012A 6A95           00229   CLRF TRISD,0
00012C 8092           00230   BSF TRISA,0,0
00012E 8093           00231   BSF TRISB,0,0
000130 8293           00232   BSF TRISB,1,0
000132 9692           00233   BCF TRISA,3,0
000134 9EF1           00234   BCF INTCON2,RBPU,0
000136 9892           00235   BCF TRISA,4,0 ;TODO: DEBUGGING
000138 0012           00236   RETURN
                      00237 
                      00238 ; Inicialitza variables a utilitzar
MPASM 5.86             NEWPIC_8B_GENERAL.ASM   2-16-2023  13:15:58         PAGE  6


LOC  OBJECT CODE     LINE SOURCE TEXT
  VALUE

00013A                00239 INIT_VARS
00013A 0E37           00240   MOVLW b'00110111'
00013C 6E00           00241   MOVWF CONST_7SEG_HIGH
00013E 0E75           00242   MOVLW b'01110101'
000140 6E01           00243   MOVWF CONST_7SEG_MID
000142 0E0D           00244   MOVLW b'00001101'
000144 6E02           00245   MOVWF CONST_7SEG_LOW
000146 0E7D           00246   MOVLW b'01111101'
000148 6E03           00247   MOVWF CONST_7SEG_0
00014A 6805           00248   SETF MANUAL_MODE
00014C 9689           00249   BCF LATA,3,0
00014E EC?? F???      00250   CALL RESET_TICS_MIN
000152 0E04           00251   MOVLW .4
000154 6E06           00252   MOVWF VEL_ACTUAL
000156 6A11           00253   CLRF ALARM_EN
000158 6A04           00254   CLRF IS_NEGATIVE
00015A 9889           00255   BCF LATA,4,0 ;TODO: DEBUGGING
00015C 6A14           00256   CLRF AUTOP_EN
00015E 6A17           00257   CLRF RECORD_MODE
000160 0012           00258   RETURN
                      00259 
                      00260 ; Inicialitza ADC pel joystick (AN0 i AN1)
000162                00261 INIT_ADC
                      00262   ;Analog OUT (AN0) i deshabilita Vref
000162 0E0E           00263   MOVLW b'00001110'
000164 6EC1           00264   MOVWF ADCON1,0
                      00265   ;Clear ADCON2
000166 6AC0           00266   CLRF ADCON2,0
                      00267   ;Enable ADC i selecciona Channel 0
000168 0E01           00268   MOVLW b'00000001'
00016A 6EC2           00269   MOVWF ADCON0,0
00016C 0012           00270   RETURN
                      00271 
                      00272 ; Inicialitza les interrupcions a utilitzar (nomes la del timer)
00016E                00273 INIT_IRQS
00016E 9ED0           00274   BCF RCON,IPEN,0
000170 0EC0           00275   MOVLW b'11000000'
000172 6EF2           00276   MOVWF INTCON,0
000174 0012           00277   RETURN
                      00278 
                      00279 ; Inicialitza el timer a utilitzar (TIMER0)
000176                00280 INIT_TMR
000176 0E8F           00281   MOVLW b'10001111'
000178 6ED5           00282   MOVWF T0CON,0
00017A 8AF2           00283   BSF INTCON,TMR0IE,0
00017C 0012           00284   RETURN
                      00285 
                      00286 ;--------------------------------------
                      00287 ; MAIN I LOOP DEL PROGRAMA
                      00288 ;--------------------------------------
00017E                00289 MAIN
00017E EC?? F???      00290   CALL INIT_OSC
000182 EC?? F???      00291   CALL INIT_PORTS
MPASM 5.86             NEWPIC_8B_GENERAL.ASM   2-16-2023  13:15:58         PAGE  7


LOC  OBJECT CODE     LINE SOURCE TEXT
  VALUE

000186 EC?? F???      00292   CALL INIT_VARS
00018A EC?? F???      00293   CALL INIT_ADC
00018E EC?? F???      00294   CALL INIT_IRQS
000192 EC?? F???      00295   CALL INIT_TMR
                      00296   
000196                00297 LOOP
                      00298 ; Consulta Polsador Manual
Warning[203]: Found opcode in column 1. (BTFSS)
000196 A081           00299 BTFSS PORTB,0,0 
Warning[203]: Found opcode in column 1. (CALL)
000198 EC?? F???      00300 CALL CHANGE_MANUAL_MODE
                      00301 ; Consulta Polsador Recording
Warning[203]: Found opcode in column 1. (BTFSS)
00019C A281           00302 BTFSS PORTB,1,0
Warning[203]: Found opcode in column 1. (CALL)
00019E EC?? F???      00303 CALL CHANGE_RECORDING_MODE
                      00304 ; Check Mode
Warning[203]: Found opcode in column 1. (BTFSS)
0001A2 A005           00305 BTFSS MANUAL_MODE,0
Warning[203]: Found opcode in column 1. (GOTO)
0001A4 EF?? F???      00306 GOTO LOOP
                      00307 
                      00308 ;Preparat per agafar l'output
Warning[203]: Found opcode in column 1. (BSF)
0001A8 82C2           00309 BSF ADCON0,GO_NOT_DONE,0
                      00310 
                      00311 ;Procesessa l'output
0001AA                00312 WAIT_ADC
0001AA B2C2           00313   BTFSC ADCON0,GO_NOT_DONE,0
0001AC EF?? F???      00314   GOTO WAIT_ADC
                      00315 
                      00316 
                      00317 ;Agafa el output (en ADRESH)
                      00318 ;Per utilitzar 7 passos OUTPUT --> ADRESH rang (numero de valors) 
                      00319                         ;H (N) --> [0,38]      (39)
                      00320                         ;M (N) --> [39,77]     (39)
                      00321                         ;L (N) --> [78, 116]   (39)
                      00322                         ;0 --> [117,138]       (22)
                      00323                         ;L (P) --> [139, 177]  (39)
                      00324                         ;M (P) --> [178,216]   (39)
                      00325                         ;H (P) --> [217,255]   (39)
                      00326 ; Divideix in 2 parts per utilitzar el bit Negative de STATUS 
                      00327 ; Sense sobrepassar el limit CA2
Warning[203]: Found opcode in column 1. (MOVLW)
0001B0 0E8B           00328 MOVLW .139
Warning[203]: Found opcode in column 1. (SUBWF)
0001B2 5CC4           00329 SUBWF ADRESH,0,0
Warning[203]: Found opcode in column 1. (BTFSC)
0001B4 B8D8           00330 BTFSC STATUS,N,0
Warning[203]: Found opcode in column 1. (GOTO)
0001B6 EF?? F???      00331 GOTO CHECK_LOW
Warning[203]: Found opcode in column 1. (GOTO)
0001BA EF?? F???      00332 GOTO CHECK_HIGH 
MPASM 5.86             NEWPIC_8B_GENERAL.ASM   2-16-2023  13:15:58         PAGE  8


LOC  OBJECT CODE     LINE SOURCE TEXT
  VALUE

                      00333 
                      00334 ; Assigna les velocitats negatives
0001BE                00335 CHECK_LOW
0001BE 0E27           00336   MOVLW .39
0001C0 5CC4           00337   SUBWF ADRESH,0,0
0001C2 B8D8           00338   BTFSC STATUS,N,0
0001C4 EF?? F???      00339   GOTO VEL_N_HIGH_7Seg
0001C8 0E4E           00340   MOVLW .78
0001CA 5CC4           00341   SUBWF ADRESH,0,0
0001CC B8D8           00342   BTFSC STATUS,N,0
0001CE EF?? F???      00343   GOTO VEL_N_MID_7Seg
0001D2 0E75           00344   MOVLW .117
0001D4 5CC4           00345   SUBWF ADRESH,0,0
0001D6 B8D8           00346   BTFSC STATUS,N,0
0001D8 EF?? F???      00347   GOTO VEL_N_LOW_7Seg
0001DC EF?? F???      00348   GOTO VEL_0_7Seg
                      00349 
                      00350 ; Assigna les velocitats positives
0001E0                00351 CHECK_HIGH
0001E0 0EB2           00352   MOVLW .178
0001E2 5CC4           00353   SUBWF ADRESH,0,0
0001E4 B8D8           00354   BTFSC STATUS,N,0
0001E6 EF?? F???      00355   GOTO VEL_P_LOW_7Seg 
0001EA 0ED9           00356   MOVLW .217
0001EC 5CC4           00357   SUBWF ADRESH,0,0
0001EE B8D8           00358   BTFSC STATUS,N,0
0001F0 EF?? F???      00359   GOTO VEL_P_MID_7Seg 
0001F4 0EFF           00360   MOVLW .255
0001F6 5CC4           00361   SUBWF ADRESH,0,0
0001F8 B8D8           00362   BTFSC STATUS,N,0
0001FA EF?? F???      00363   GOTO VEL_P_HIGH_7Seg
                      00364 
                      00365 ; Les següents funcions assignen la velocitat corresponent al 7seg i encenen
                      00366 ; o apaguen el led de velocitat negatiu mentre no estigui l'alarma activada
                      00367 ; Assigna la velocitat (N) H
0001FE                00368 VEL_N_HIGH_7Seg
0001FE A004           00369   BTFSS IS_NEGATIVE,0
000200 EF?? F???      00370   GOTO VEL_P_HIGH_7Seg
000204 0E01           00371   MOVLW .1
000206 5C06           00372   SUBWF VEL_ACTUAL,0
000208 B4D8           00373   BTFSC STATUS,Z,0
00020A EF?? F???      00374   GOTO LOOP
00020E 0E01           00375   MOVLW .1
000210 6E06           00376   MOVWF VEL_ACTUAL
000212 EC?? F???      00377   CALL RESET_TICS_MIN
000216 C000 FF8C      00378   MOVFF CONST_7SEG_HIGH,LATD
00021A A011           00379   BTFSS ALARM_EN,0
00021C 8689           00380   BSF LATA,3,0
00021E 0E01           00381   MOVLW .1
000220 6E04           00382   MOVWF IS_NEGATIVE
000222 EF?? F???      00383   GOTO LOOP
                      00384 
                      00385 ; Assigna la velocitat (N) M 
MPASM 5.86             NEWPIC_8B_GENERAL.ASM   2-16-2023  13:15:58         PAGE  9


LOC  OBJECT CODE     LINE SOURCE TEXT
  VALUE

000226                00386 VEL_N_MID_7Seg
000226 0E02           00387   MOVLW .2
000228 5C06           00388   SUBWF VEL_ACTUAL,0
00022A B4D8           00389   BTFSC STATUS,Z,0
00022C EF?? F???      00390   GOTO LOOP
000230 0E02           00391   MOVLW .2
000232 6E06           00392   MOVWF VEL_ACTUAL
000234 EC?? F???      00393   CALL RESET_TICS_MIN
000238 C001 FF8C      00394   MOVFF CONST_7SEG_MID,LATD
00023C A011           00395   BTFSS ALARM_EN,0
00023E 8689           00396   BSF LATA,3,0
000240 0E01           00397   MOVLW .1
000242 6E04           00398   MOVWF IS_NEGATIVE
000244 EF?? F???      00399   GOTO LOOP
                      00400 
                      00401 ; Assigna la velocitat (N) L
000248                00402 VEL_N_LOW_7Seg
000248 0E03           00403   MOVLW .3
00024A 5C06           00404   SUBWF VEL_ACTUAL,0
00024C B4D8           00405   BTFSC STATUS,Z,0
00024E EF?? F???      00406   GOTO LOOP
000252 0E03           00407   MOVLW .3
000254 6E06           00408   MOVWF VEL_ACTUAL
000256 EC?? F???      00409   CALL RESET_TICS_MIN
00025A C002 FF8C      00410   MOVFF CONST_7SEG_LOW,LATD
00025E A011           00411   BTFSS ALARM_EN,0
000260 8689           00412   BSF LATA,3,0
000262 0E01           00413   MOVLW .1
000264 6E04           00414   MOVWF IS_NEGATIVE
000266 EF?? F???      00415   GOTO LOOP
                      00416 
                      00417 ; Assigna la velocitat 0
00026A                00418 VEL_0_7Seg
00026A 0E04           00419   MOVLW .4
00026C 5C06           00420   SUBWF VEL_ACTUAL,0
00026E B4D8           00421   BTFSC STATUS,Z,0
000270 EF?? F???      00422   GOTO LOOP
000274 0E04           00423   MOVLW .4
000276 6E06           00424   MOVWF VEL_ACTUAL
000278 EC?? F???      00425   CALL RESET_TICS_MIN
00027C C003 FF8C      00426   MOVFF CONST_7SEG_0,LATD
000280 A011           00427   BTFSS ALARM_EN,0
000282 9689           00428   BCF LATA,3,0
000284 6A04           00429   CLRF IS_NEGATIVE
000286 EF?? F???      00430   GOTO LOOP
                      00431 
                      00432 ; Assigna la velocitat (P) L 
00028A                00433 VEL_P_LOW_7Seg
00028A 0E05           00434   MOVLW .5
00028C 5C06           00435   SUBWF VEL_ACTUAL,0
00028E B4D8           00436   BTFSC STATUS,Z,0
000290 EF?? F???      00437   GOTO LOOP
000294 0E05           00438   MOVLW .5
MPASM 5.86             NEWPIC_8B_GENERAL.ASM   2-16-2023  13:15:58         PAGE 10


LOC  OBJECT CODE     LINE SOURCE TEXT
  VALUE

000296 6E06           00439   MOVWF VEL_ACTUAL
000298 EC?? F???      00440   CALL RESET_TICS_MIN
00029C C002 FF8C      00441   MOVFF CONST_7SEG_LOW,LATD
0002A0 A011           00442   BTFSS ALARM_EN,0
0002A2 9689           00443   BCF LATA,3,0
0002A4 6A04           00444   CLRF IS_NEGATIVE
0002A6 EF?? F???      00445   GOTO LOOP
                      00446 
                      00447 ; Assigna la velocitat (P) M
0002AA                00448 VEL_P_MID_7Seg
0002AA 0E06           00449   MOVLW .6
0002AC 5C06           00450   SUBWF VEL_ACTUAL,0
0002AE B4D8           00451   BTFSC STATUS,Z,0
0002B0 EF?? F???      00452   GOTO LOOP
0002B4 0E06           00453   MOVLW .6
0002B6 6E06           00454   MOVWF VEL_ACTUAL
0002B8 EC?? F???      00455   CALL RESET_TICS_MIN
0002BC C001 FF8C      00456   MOVFF CONST_7SEG_MID,LATD
0002C0 A011           00457   BTFSS ALARM_EN,0
0002C2 9689           00458   BCF LATA,3,0
0002C4 6A04           00459   CLRF IS_NEGATIVE
0002C6 EF?? F???      00460   GOTO LOOP
                      00461 
                      00462 ; Assigna la velocitat (P) H
0002CA                00463 VEL_P_HIGH_7Seg
0002CA 0E07           00464   MOVLW .7
0002CC 5C06           00465   SUBWF VEL_ACTUAL,0
0002CE B4D8           00466   BTFSC STATUS,Z,0
0002D0 EF?? F???      00467   GOTO LOOP
0002D4 0E07           00468   MOVLW .7
0002D6 6E06           00469   MOVWF VEL_ACTUAL
0002D8 EC?? F???      00470   CALL RESET_TICS_MIN
0002DC C000 FF8C      00471   MOVFF CONST_7SEG_HIGH,LATD
0002E0 A011           00472   BTFSS ALARM_EN,0
0002E2 9689           00473   BCF LATA,3,0
0002E4 6A04           00474   CLRF IS_NEGATIVE
0002E6 EF?? F???      00475   GOTO LOOP
                      00476 
                      00477 
                      00478 ;--------------------------------------
                      00479 ; COMPTATGES D'INSTRUCCIONS
                      00480 ;--------------------------------------
                      00481 
                      00482 ; Compta 20ms corresponents al temps de rebots dels polsadors 
                      00483 ; TTarget = 20ms | Tinst = 250ns --> #inst = 80.000 - 4 = 79996
                      00484 ; 4 + (4*X + 6)*Y = 79996 --> X = 255 | Y = 78
0002EA                00485 COUNT_20ms
0002EA 0E01           00486   MOVLW .1 ;x = 256 - 255 = 1
0002EC 6E07           00487   MOVWF ContRebotsL
0002EE 0EB2           00488   MOVLW .178 ;y = 256 - 78 = 178
0002F0 6E08           00489   MOVWF ContRebotsH
Warning[207]: Found label after column 1. (T_REBOTS)
0002F2                00490   T_REBOTS
MPASM 5.86             NEWPIC_8B_GENERAL.ASM   2-16-2023  13:15:58         PAGE 11


LOC  OBJECT CODE     LINE SOURCE TEXT
  VALUE

0002F2 2A07           00491     INCF ContRebotsL,1
0002F4 A0D8           00492     BTFSS STATUS,C,0
0002F6 EF?? F???      00493     GOTO T_REBOTS
0002FA 0E01           00494     MOVLW .1
0002FC 6E07           00495     MOVWF ContRebotsL
0002FE 2A08           00496     INCF ContRebotsH,1
000300 A0D8           00497     BTFSS STATUS,C,0
000302 EF?? F???      00498     GOTO T_REBOTS
000306 0012           00499   RETURN
                      00500         
Warning[205]: Found directive in column 1. (END)
                      00501 END
MPASM 5.86             NEWPIC_8B_GENERAL.ASM   2-16-2023  13:15:58         PAGE 12


SYMBOL TABLE
  LABEL                             VALUE 

A                                 00000000
ABDEN                             00000000
ABDOVF                            00000007
ACCESS                            00000000
ACKDT                             00000005
ACKEN                             00000004
ACKSTAT                           00000006
ACQT0                             00000003
ACQT1                             00000004
ACQT2                             00000005
ADCON0                            00000FC2
ADCON1                            00000FC1
ADCON2                            00000FC0
ADCS0                             00000000
ADCS1                             00000001
ADCS2                             00000002
ADDEN                             00000003
ADEN                              00000003
ADFM                              00000007
ADIE                              00000006
ADIF                              00000006
ADIP                              00000006
ADMSK1                            00000001
ADMSK2                            00000002
ADMSK3                            00000003
ADMSK4                            00000004
ADMSK5                            00000005
ADON                              00000000
ADRES                             00000FC3
ADRESH                            00000FC4
ADRESL                            00000FC3
ALARM_EN                          00000011
AN0                               00000000
AN1                               00000001
AN10                              00000001
AN11                              00000004
AN12                              00000000
AN2                               00000002
AN3                               00000003
AN4                               00000005
AN5                               00000000
AN6                               00000001
AN7                               00000002
AN8                               00000002
AN9                               00000003
AUTOP_EN                          00000014
BANKED                            00000001
BAUDCON                           00000FB8
BAUDCTL                           00000FB8
BCLIE                             00000003
BCLIF                             00000003
BCLIP                             00000003
BF                                00000000
MPASM 5.86             NEWPIC_8B_GENERAL.ASM   2-16-2023  13:15:58         PAGE 13


SYMBOL TABLE
  LABEL                             VALUE 

BGST                              00000005
BOR                               00000000
BRG16                             00000003
BRGH                              00000002
BSR                               00000FE0
C                                 00000000
C1INV                             00000004
C1N                               00000000
C1OUT_CMCON                       00000006
C1OUT_PORTA                       00000004
C1P                               00000003
C2INV                             00000005
C2N                               00000001
C2OUT_CMCON                       00000007
C2OUT_PORTA                       00000005
C2P                               00000002
CCP1                              00000002
CCP1CON                           00000FBD
CCP1IE                            00000002
CCP1IF                            00000002
CCP1IP                            00000002
CCP1M0                            00000000
CCP1M1                            00000001
CCP1M2                            00000002
CCP1M3                            00000003
CCP1X                             00000005
CCP1Y                             00000004
CCP2CON                           00000FBA
CCP2IE                            00000000
CCP2IF                            00000000
CCP2IP                            00000000
CCP2M0                            00000000
CCP2M1                            00000001
CCP2M2                            00000002
CCP2M3                            00000003
CCP2X                             00000005
CCP2Y                             00000004
CCP2_PORTB                        00000003
CCP2_PORTC                        00000001
CCPR1                             00000FBE
CCPR1H                            00000FBF
CCPR1L                            00000FBE
CCPR2                             00000FBB
CCPR2H                            00000FBC
CCPR2L                            00000FBB
CFGS                              00000006
CHANGE_MANUAL_MODE                000000CC
CHANGE_RECORDING_MODE             000000FA
CHANGE_TO_CRUISE                  000000C6
CHANGE_TO_MANUAL                  000000C0
CHANGE_TO_NO_RECORD               000000F4
CHANGE_TO_RECORD                  000000EE
CHECK_HIGH                        000001E0
MPASM 5.86             NEWPIC_8B_GENERAL.ASM   2-16-2023  13:15:58         PAGE 14


SYMBOL TABLE
  LABEL                             VALUE 

CHECK_LOW                         000001BE
CHECK_TICS_MIN                    00000054
CHECK_TICS_SEG                    00000092
CHS0                              00000002
CHS1                              00000003
CHS2                              00000004
CHS3                              00000005
CIS                               00000003
CK                                00000006
CKE                               00000006
CKP                               00000004
CLKI                              00000007
CLKO                              00000006
CM0                               00000000
CM1                               00000001
CM2                               00000002
CMCON                             00000FB4
CMIE                              00000006
CMIF                              00000006
CMIP                              00000006
CONST_7SEG_0                      00000003
CONST_7SEG_HIGH                   00000000
CONST_7SEG_LOW                    00000002
CONST_7SEG_MID                    00000001
COUNT_20ms                        000002EA
CREN                              00000004
CS                                00000002
CSRC                              00000007
CVR0                              00000000
CVR1                              00000001
CVR2                              00000002
CVR3                              00000003
CVRCON                            00000FB5
CVREF                             00000002
CVREN                             00000007
CVROE                             00000006
CVRR                              00000005
CVRSS                             00000004
ContRebotsH                       00000008
ContRebotsL                       00000007
D                                 00000005
DC                                00000001
DC1B0                             00000004
DC1B1                             00000005
DC2B0                             00000004
DC2B1                             00000005
DDRA                              TRISA
DDRB                              TRISB
DDRC                              TRISC
DDRD                              TRISD
DDRE                              TRISE
DONE                              00000001
D_A                               00000005
MPASM 5.86             NEWPIC_8B_GENERAL.ASM   2-16-2023  13:15:58         PAGE 15


SYMBOL TABLE
  LABEL                             VALUE 

D_NOT_A                           00000005
ECCP1AS                           00000FB6
ECCP1CON                          00000FBD
ECCP1DEL                          00000FB7
ECCPAS0                           00000004
ECCPAS1                           00000005
ECCPAS2                           00000006
ECCPASE                           00000007
EEADR                             00000FA9
EECON1                            00000FA6
EECON2                            00000FA7
EEDATA                            00000FA8
EEIE                              00000004
EEIF                              00000004
EEIP                              00000004
EEPGD                             00000007
ESPERA_FI_P0                      000000DE
ESPERA_FI_P1                      00000110
FAST                              00000001
FERR                              00000002
FLT0                              00000000
FLTS                              00000002
FREE                              00000004
FSR0                              00000000
FSR0H                             00000FEA
FSR0L                             00000FE9
FSR1                              00000001
FSR1H                             00000FE2
FSR1L                             00000FE1
FSR2                              00000002
FSR2H                             00000FDA
FSR2L                             00000FD9
GCEN                              00000007
GIE                               00000007
GIEH                              00000007
GIEL                              00000006
GIE_GIEH                          00000007
GO                                00000001
GO_DONE                           00000001
GO_NOT_DONE                       00000001
HIGH_RSI                          0000003A
HLVDCON                           00000FD2
HLVDEN                            00000004
HLVDIE                            00000002
HLVDIF                            00000002
HLVDIN                            00000005
HLVDIP                            00000002
HLVDL0                            00000000
HLVDL1                            00000001
HLVDL2                            00000002
HLVDL3                            00000003
IBF                               00000007
IBOV                              00000005
MPASM 5.86             NEWPIC_8B_GENERAL.ASM   2-16-2023  13:15:58         PAGE 16


SYMBOL TABLE
  LABEL                             VALUE 

IDLEN                             00000007
INDF0                             00000FEF
INDF1                             00000FE7
INDF2                             00000FDF
INIT_ADC                          00000162
INIT_IRQS                         0000016E
INIT_OSC                          00000122
INIT_PORTS                        0000012A
INIT_TMR                          00000176
INIT_VARS                         0000013A
INT0                              00000000
INT0E                             00000004
INT0F                             00000001
INT0IE                            00000004
INT0IF                            00000001
INT1                              00000001
INT1E                             00000003
INT1F                             00000000
INT1IE                            00000003
INT1IF                            00000000
INT1IP                            00000006
INT1P                             00000006
INT2                              00000002
INT2E                             00000004
INT2F                             00000001
INT2IE                            00000004
INT2IF                            00000001
INT2IP                            00000007
INT2P                             00000007
INTCON                            00000FF2
INTCON2                           00000FF1
INTCON3                           00000FF0
INTEDG0                           00000006
INTEDG1                           00000005
INTEDG2                           00000004
INTSRC                            00000007
IOFS                              00000002
IPEN                              00000007
IPR1                              00000F9F
IPR2                              00000FA2
IRCF0                             00000004
IRCF1                             00000005
IRCF2                             00000006
IRVST                             00000005
IS_NEGATIVE                       00000004
KBI0                              00000004
KBI1                              00000005
KBI2                              00000006
KBI3                              00000007
LATA                              00000F89
LATA0                             00000000
LATA1                             00000001
LATA2                             00000002
MPASM 5.86             NEWPIC_8B_GENERAL.ASM   2-16-2023  13:15:58         PAGE 17


SYMBOL TABLE
  LABEL                             VALUE 

LATA3                             00000003
LATA4                             00000004
LATA5                             00000005
LATA6                             00000006
LATA7                             00000007
LATB                              00000F8A
LATB0                             00000000
LATB1                             00000001
LATB2                             00000002
LATB3                             00000003
LATB4                             00000004
LATB5                             00000005
LATB6                             00000006
LATB7                             00000007
LATC                              00000F8B
LATC0                             00000000
LATC1                             00000001
LATC2                             00000002
LATC3                             00000003
LATC4                             00000004
LATC5                             00000005
LATC6                             00000006
LATC7                             00000007
LATD                              00000F8C
LATD0                             00000000
LATD1                             00000001
LATD2                             00000002
LATD3                             00000003
LATD4                             00000004
LATD5                             00000005
LATD6                             00000006
LATD7                             00000007
LATE                              00000F8D
LATE0                             00000000
LATE1                             00000001
LATE2                             00000002
LOAD_TMR                          0000001A
LOOP                              00000196
LVDCON                            00000FD2
LVDEN                             00000004
LVDIE                             00000002
LVDIF                             00000002
LVDIP                             00000002
LVDL0                             00000000
LVDL1                             00000001
LVDL2                             00000002
LVDL3                             00000003
LVV0                              00000000
LVV1                              00000001
LVV2                              00000002
LVV3                              00000003
MAIN                              0000017E
MANUAL_MODE                       00000005
MPASM 5.86             NEWPIC_8B_GENERAL.ASM   2-16-2023  13:15:58         PAGE 18


SYMBOL TABLE
  LABEL                             VALUE 

MCLR                              00000003
MINUTE_PASSED                     00000074
N                                 00000004
NOT_A                             00000005
NOT_ADDRESS                       00000005
NOT_BOR                           00000000
NOT_CS                            00000002
NOT_DONE                          00000001
NOT_MCLR                          00000003
NOT_PD                            00000002
NOT_POR                           00000001
NOT_RBPU                          00000007
NOT_RD                            00000000
NOT_RI                            00000004
NOT_SS                            00000005
NOT_T1SYNC                        00000002
NOT_T3SYNC                        00000002
NOT_TO                            00000003
NOT_W                             00000002
NOT_WR                            00000001
NOT_WRITE                         00000002
OBF                               00000006
OERR                              00000001
OSC1                              00000007
OSC2                              00000006
OSCCON                            00000FD3
OSCFIE                            00000007
OSCFIF                            00000007
OSCFIP                            00000007
OSCTUNE                           00000F9B
OSTS                              00000003
OV                                00000003
P                                 00000004
P1A                               00000002
P1B                               00000005
P1C                               00000006
P1D                               00000007
P1M0                              00000006
P1M1                              00000007
PC                                00000FF9
PCFG0                             00000000
PCFG1                             00000001
PCFG2                             00000002
PCFG3                             00000003
PCL                               00000FF9
PCLATH                            00000FFA
PCLATU                            00000FFB
PD                                00000002
PDC0                              00000000
PDC1                              00000001
PDC2                              00000002
PDC3                              00000003
PDC4                              00000004
MPASM 5.86             NEWPIC_8B_GENERAL.ASM   2-16-2023  13:15:58         PAGE 19


SYMBOL TABLE
  LABEL                             VALUE 

PDC5                              00000005
PDC6                              00000006
PEIE                              00000006
PEIE_GIEL                         00000006
PEN                               00000002
PGC                               00000006
PGD                               00000007
PGM                               00000005
PIE1                              00000F9D
PIE2                              00000FA0
PIR1                              00000F9E
PIR2                              00000FA1
PLLEN                             00000006
PLUSW0                            00000FEB
PLUSW1                            00000FE3
PLUSW2                            00000FDB
POR                               00000001
PORTA                             00000F80
PORTB                             00000F81
PORTC                             00000F82
PORTD                             00000F83
PORTE                             00000F84
POSTDEC0                          00000FED
POSTDEC1                          00000FE5
POSTDEC2                          00000FDD
POSTINC0                          00000FEE
POSTINC1                          00000FE6
POSTINC2                          00000FDE
PR2                               00000FCB
PREINC0                           00000FEC
PREINC1                           00000FE4
PREINC2                           00000FDC
PROD                              00000FF3
PRODH                             00000FF4
PRODL                             00000FF3
PRSEN                             00000007
PSA                               00000003
PSP0                              00000000
PSP1                              00000001
PSP2                              00000002
PSP3                              00000003
PSP4                              00000004
PSP5                              00000005
PSP6                              00000006
PSP7                              00000007
PSPIE                             00000007
PSPIF                             00000007
PSPIP                             00000007
PSPMODE                           00000004
PSSAC0                            00000002
PSSAC1                            00000003
PSSBD0                            00000000
PSSBD1                            00000001
MPASM 5.86             NEWPIC_8B_GENERAL.ASM   2-16-2023  13:15:58         PAGE 20


SYMBOL TABLE
  LABEL                             VALUE 

PWM1CON                           00000FB7
R                                 00000002
RA0                               00000000
RA1                               00000001
RA2                               00000002
RA3                               00000003
RA4                               00000004
RA5                               00000005
RA6                               00000006
RA7                               00000007
RB0                               00000000
RB1                               00000001
RB2                               00000002
RB3                               00000003
RB4                               00000004
RB5                               00000005
RB6                               00000006
RB7                               00000007
RBIE                              00000003
RBIF                              00000000
RBIP                              00000000
RBPU                              00000007
RC0                               00000000
RC1                               00000001
RC2                               00000002
RC3                               00000003
RC4                               00000004
RC5                               00000005
RC6                               00000006
RC7                               00000007
RCEN                              00000003
RCIDL                             00000006
RCIE                              00000005
RCIF                              00000005
RCIP                              00000005
RCMT                              00000006
RCON                              00000FD0
RCREG                             00000FAE
RCSTA                             00000FAB
RD                                00000000
RD0                               00000000
RD1                               00000001
RD16                              00000007
RD2                               00000002
RD3                               00000003
RD4                               00000004
RD5                               00000005
RD6                               00000006
RD7                               00000007
RE0                               00000000
RE1                               00000001
RE2                               00000002
RE3                               00000003
MPASM 5.86             NEWPIC_8B_GENERAL.ASM   2-16-2023  13:15:58         PAGE 21


SYMBOL TABLE
  LABEL                             VALUE 

RECORD_MODE                       00000017
RESET_TICS_ALARM                  00000034
RESET_TICS_MIN                    00000024
RESET_TICS_SEG                    0000002C
RI                                00000004
RSEN                              00000001
RX                                00000007
RX9                               00000006
RX9D                              00000000
RXDTP                             00000005
R_NOT_W                           00000002
R_W                               00000002
S                                 00000003
SBOREN                            00000006
SCK                               00000003
SCKP                              00000004
SCL                               00000003
SCS0                              00000000
SCS1                              00000001
SDA                               00000004
SDI                               00000004
SDO                               00000005
SEN                               00000000
SENDB                             00000003
SMP                               00000007
SP0                               00000000
SP1                               00000001
SP2                               00000002
SP3                               00000003
SP4                               00000004
SPBRG                             00000FAF
SPBRGH                            00000FB0
SPEN                              00000007
SREN                              00000005
SSPADD                            00000FC8
SSPBUF                            00000FC9
SSPCON1                           00000FC6
SSPCON2                           00000FC5
SSPEN                             00000005
SSPIE                             00000003
SSPIF                             00000003
SSPIP                             00000003
SSPM0                             00000000
SSPM1                             00000001
SSPM2                             00000002
SSPM3                             00000003
SSPOV                             00000006
SSPSTAT                           00000FC7
STATUS                            00000FD8
STKFUL                            00000007
STKOVF                            00000007
STKPTR                            00000FFC
STKUNF                            00000006
MPASM 5.86             NEWPIC_8B_GENERAL.ASM   2-16-2023  13:15:58         PAGE 22


SYMBOL TABLE
  LABEL                             VALUE 

SWDTE                             00000000
SWDTEN                            00000000
SYNC                              00000004
T016BIT                           00000006
T08BIT                            00000006
T0CKI                             00000004
T0CON                             00000FD5
T0CS                              00000005
T0IE                              00000005
T0IF                              00000002
T0PS0                             00000000
T0PS1                             00000001
T0PS2                             00000002
T0SE                              00000004
T13CKI                            00000000
T1CKI                             00000000
T1CKPS0                           00000004
T1CKPS1                           00000005
T1CON                             00000FCD
T1OSCEN                           00000003
T1OSI                             00000001
T1OSO                             00000000
T1RUN                             00000006
T1SYNC                            00000002
T2CKPS0                           00000000
T2CKPS1                           00000001
T2CON                             00000FCA
T2OUTPS0                          00000003
T2OUTPS1                          00000004
T2OUTPS2                          00000005
T2OUTPS3                          00000006
T3CCP1                            00000003
T3CCP2                            00000006
T3CKPS0                           00000004
T3CKPS1                           00000005
T3CON                             00000FB1
T3SYNC                            00000002
TABLAT                            00000FF5
TBLPTR                            00000FF6
TBLPTRH                           00000FF7
TBLPTRL                           00000FF6
TBLPTRU                           00000FF8
TMR0                              00000FD6
TMR0H                             00000FD7
TMR0IE                            00000005
TMR0IF                            00000002
TMR0IP                            00000002
TMR0L                             00000FD6
TMR0ON                            00000007
TMR1                              00000FCE
TMR1CS                            00000001
TMR1H                             00000FCF
TMR1IE                            00000000
MPASM 5.86             NEWPIC_8B_GENERAL.ASM   2-16-2023  13:15:58         PAGE 23


SYMBOL TABLE
  LABEL                             VALUE 

TMR1IF                            00000000
TMR1IP                            00000000
TMR1L                             00000FCE
TMR1ON                            00000000
TMR2                              00000FCC
TMR2IE                            00000001
TMR2IF                            00000001
TMR2IP                            00000001
TMR2ON                            00000002
TMR3                              00000FB2
TMR3CS                            00000001
TMR3H                             00000FB3
TMR3IE                            00000001
TMR3IF                            00000001
TMR3IP                            00000001
TMR3L                             00000FB2
TMR3ON                            00000000
TO                                00000003
TOS                               00000FFD
TOSH                              00000FFE
TOSL                              00000FFD
TOSU                              00000FFF
TOUTPS0                           00000003
TOUTPS1                           00000004
TOUTPS2                           00000005
TOUTPS3                           00000006
TRISA                             00000F92
TRISA0                            00000000
TRISA1                            00000001
TRISA2                            00000002
TRISA3                            00000003
TRISA4                            00000004
TRISA5                            00000005
TRISA6                            00000006
TRISA7                            00000007
TRISB                             00000F93
TRISB0                            00000000
TRISB1                            00000001
TRISB2                            00000002
TRISB3                            00000003
TRISB4                            00000004
TRISB5                            00000005
TRISB6                            00000006
TRISB7                            00000007
TRISC                             00000F94
TRISC0                            00000000
TRISC1                            00000001
TRISC2                            00000002
TRISC3                            00000003
TRISC4                            00000004
TRISC5                            00000005
TRISC6                            00000006
TRISC7                            00000007
MPASM 5.86             NEWPIC_8B_GENERAL.ASM   2-16-2023  13:15:58         PAGE 24


SYMBOL TABLE
  LABEL                             VALUE 

TRISD                             00000F95
TRISD0                            00000000
TRISD1                            00000001
TRISD2                            00000002
TRISD3                            00000003
TRISD4                            00000004
TRISD5                            00000005
TRISD6                            00000006
TRISD7                            00000007
TRISE                             00000F96
TRISE0                            00000000
TRISE1                            00000001
TRISE2                            00000002
TRMT                              00000001
TUN0                              00000000
TUN1                              00000001
TUN2                              00000002
TUN3                              00000003
TUN4                              00000004
TX                                00000006
TX9                               00000006
TX9D                              00000000
TXCKP                             00000004
TXEN                              00000005
TXIE                              00000004
TXIF                              00000004
TXIP                              00000004
TXREG                             00000FAD
TXSTA                             00000FAC
T_REBOTS                          000002F2
TicsAlarmH                        00000013
TicsAlarmL                        00000012
TicsMinH                          00000009
TicsMinL                          00000010
TicsSegH                          00000016
TicsSegL                          00000015
UA                                00000001
UPDATE_SPEED                      000000B2
VCFG0                             00000004
VCFG1                             00000005
VDIRMAG                           00000007
VEL_0_7Seg                        0000026A
VEL_ACTUAL                        00000006
VEL_N_HIGH_7Seg                   000001FE
VEL_N_LOW_7Seg                    00000248
VEL_N_MID_7Seg                    00000226
VEL_P_HIGH_7Seg                   000002CA
VEL_P_LOW_7Seg                    0000028A
VEL_P_MID_7Seg                    000002AA
VPP                               00000003
VREFM                             00000002
VREFP                             00000003
W                                 00000000
MPASM 5.86             NEWPIC_8B_GENERAL.ASM   2-16-2023  13:15:58         PAGE 25


SYMBOL TABLE
  LABEL                             VALUE 

WAIT_ADC                          000001AA
WCOL                              00000007
WDTCON                            00000FD1
WR                                00000001
WREG                              00000FE8
WREN                              00000002
WRERR                             00000003
WUE                               00000001
Z                                 00000002
_BBSIZ_BB1K_4L                    000000FF
_BBSIZ_BB256_4L                   000000CF
_BBSIZ_BB512_4L                   000000DF
_BORV_0_2L                        000000E7
_BORV_1_2L                        000000EF
_BORV_2_2L                        000000F7
_BORV_3_2L                        000000FF
_BOR_NOSLP_2L                     000000FD
_BOR_OFF_2L                       000000F9
_BOR_ON_2L                        000000FF
_BOR_SOFT_2L                      000000FB
_CCP2MX_RB3_3H                    000000FE
_CCP2MX_RC1_3H                    000000FF
_CONFIG1H                         00300001
_CONFIG2H                         00300003
_CONFIG2L                         00300002
_CONFIG3H                         00300005
_CONFIG4L                         00300006
_CONFIG5H                         00300009
_CONFIG5L                         00300008
_CONFIG6H                         0030000B
_CONFIG6L                         0030000A
_CONFIG7H                         0030000D
_CONFIG7L                         0030000C
_CP0_OFF_5L                       000000FF
_CP0_ON_5L                        000000FE
_CP1_OFF_5L                       000000FF
_CP1_ON_5L                        000000FD
_CPB_OFF_5H                       000000FF
_CPB_ON_5H                        000000BF
_CPD_OFF_5H                       000000FF
_CPD_ON_5H                        0000007F
_DEBUG_OFF_4L                     000000FF
_DEBUG_ON_4L                      0000007F
_DEVID1                           003FFFFE
_DEVID2                           003FFFFF
_EBTR0_OFF_7L                     000000FF
_EBTR0_ON_7L                      000000FE
_EBTR1_OFF_7L                     000000FF
_EBTR1_ON_7L                      000000FD
_EBTRB_OFF_7H                     000000FF
_EBTRB_ON_7H                      000000BF
_FCMEN_OFF_1H                     000000BF
_FCMEN_ON_1H                      000000FF
MPASM 5.86             NEWPIC_8B_GENERAL.ASM   2-16-2023  13:15:58         PAGE 26


SYMBOL TABLE
  LABEL                             VALUE 

_IDLOC0                           00200000
_IDLOC1                           00200001
_IDLOC2                           00200002
_IDLOC3                           00200003
_IDLOC4                           00200004
_IDLOC5                           00200005
_IDLOC6                           00200006
_IDLOC7                           00200007
_IESO_OFF_1H                      0000007F
_IESO_ON_1H                       000000FF
_LPT1OSC_OFF_3H                   000000FB
_LPT1OSC_ON_3H                    000000FF
_LVP_OFF_4L                       000000FB
_LVP_ON_4L                        000000FF
_MCLRE_OFF_3H                     0000007F
_MCLRE_ON_3H                      000000FF
_OSC_ECIO_1H                      000000F5
_OSC_EC_1H                        000000F4
_OSC_HSPLL_1H                     000000F6
_OSC_HS_1H                        000000F2
_OSC_INTIO1_1H                    000000F9
_OSC_INTIO2_1H                    000000F8
_OSC_LP_1H                        000000F0
_OSC_RCIO_1H                      000000F7
_OSC_RC_1H                        000000F3
_OSC_XT_1H                        000000F1
_PBADEN_ANA_3H                    000000FF
_PBADEN_DIG_3H                    000000FD
_PWRT_OFF_2L                      000000FF
_PWRT_ON_2L                       000000FE
_STVREN_OFF_4L                    000000FE
_STVREN_ON_4L                     000000FF
_WDTPS_1024_2H                    000000F5
_WDTPS_128_2H                     000000EF
_WDTPS_16384_2H                   000000FD
_WDTPS_16_2H                      000000E9
_WDTPS_1_2H                       000000E1
_WDTPS_2048_2H                    000000F7
_WDTPS_256_2H                     000000F1
_WDTPS_2_2H                       000000E3
_WDTPS_32768_2H                   000000FF
_WDTPS_32_2H                      000000EB
_WDTPS_4096_2H                    000000F9
_WDTPS_4_2H                       000000E5
_WDTPS_512_2H                     000000F3
_WDTPS_64_2H                      000000ED
_WDTPS_8192_2H                    000000FB
_WDTPS_8_2H                       000000E7
_WDT_OFF_2H                       000000FE
_WDT_ON_2H                        000000FF
_WRT0_OFF_6L                      000000FF
_WRT0_ON_6L                       000000FE
_WRT1_OFF_6L                      000000FF
MPASM 5.86             NEWPIC_8B_GENERAL.ASM   2-16-2023  13:15:58         PAGE 27


SYMBOL TABLE
  LABEL                             VALUE 

_WRT1_ON_6L                       000000FD
_WRTB_OFF_6H                      000000FF
_WRTB_ON_6H                       000000BF
_WRTC_OFF_6H                      000000FF
_WRTC_ON_6H                       000000DF
_WRTD_OFF_6H                      000000FF
_WRTD_ON_6H                       0000007F
_XINST_OFF_4L                     000000BF
_XINST_ON_4L                      000000FF
__18F4321                         00000001

Errors   :     0
Warnings :    31 reported,     0 suppressed
Messages :     0 reported,     0 suppressed

